Component: ARM Compiler 5.06 update 7 (build 960) Tool: armlink [4d3601]

==============================================================================

Section Cross References

    main.o(i.main) refers to bsp.o(i.BSP_Init) for BSP_Init
    main.o(i.main) refers to delay.o(i.delay_ms) for delay_ms
    main.o(i.main) refers to printfa.o(i.__0printf) for __2printf
    main.o(i.main) refers to usbh_core.o(i.USBH_Process) for USBH_Process
    main.o(i.main) refers to usbh_core.o(i.USBH_DeInit) for USBH_DeInit
    main.o(i.main) refers to iap.o(i.iap_load_app) for iap_load_app
    main.o(i.main) refers to usbh_usr.o(.data) for jump_flag
    main.o(i.main) refers to main.o(.data) for Start_Loop
    main.o(i.main) refers to bsp.o(.bss) for USB_Host
    bsp.o(i.BSP_Init) refers to misc.o(i.NVIC_SetVectorTable) for NVIC_SetVectorTable
    bsp.o(i.BSP_Init) refers to misc.o(i.NVIC_PriorityGroupConfig) for NVIC_PriorityGroupConfig
    bsp.o(i.BSP_Init) refers to delay.o(i.delay_init) for delay_init
    bsp.o(i.BSP_Init) refers to delay.o(i.delay_ms) for delay_ms
    bsp.o(i.BSP_Init) refers to bsp.o(i.GOIO_OUT_Init) for GOIO_OUT_Init
    bsp.o(i.BSP_Init) refers to usart.o(i.HMI_USART_Init) for HMI_USART_Init
    bsp.o(i.BSP_Init) refers to printfa.o(i.__0printf) for __2printf
    bsp.o(i.BSP_Init) refers to malloc.o(i.my_mem_init) for my_mem_init
    bsp.o(i.BSP_Init) refers to exfuns.o(i.exfuns_init) for exfuns_init
    bsp.o(i.BSP_Init) refers to usbh_core.o(i.USBH_Init) for USBH_Init
    bsp.o(i.BSP_Init) refers to cmd_queue.o(i.queue_reset) for queue_reset
    bsp.o(i.BSP_Init) refers to usbh_usr.o(.data) for USR_Callbacks
    bsp.o(i.BSP_Init) refers to usbh_msc_core.o(.data) for USBH_MSC_cb
    bsp.o(i.BSP_Init) refers to bsp.o(.bss) for USB_Host
    bsp.o(i.GOIO_OUT_Init) refers to stm32f4xx_rcc.o(i.RCC_AHB1PeriphClockCmd) for RCC_AHB1PeriphClockCmd
    bsp.o(i.GOIO_OUT_Init) refers to stm32f4xx_gpio.o(i.GPIO_Init) for GPIO_Init
    bsp.o(i.GOIO_OUT_Init) refers to stm32f4xx_gpio.o(i.GPIO_ResetBits) for GPIO_ResetBits
    iap.o(i.iap_load_app) refers to sys.o(.emb_text) for MSR_MSP
    iap.o(i.iap_load_app) refers to iap.o(.data) for jump2app
    iap.o(i.iap_write_appbin) refers to stmflash.o(i.STMFLASH_Write) for STMFLASH_Write
    iap.o(i.iap_write_appbin) refers to iap.o(.bss) for iapbuf
    stmflash.o(i.STMFLASH_Read) refers to stmflash.o(i.STMFLASH_ReadWord) for STMFLASH_ReadWord
    stmflash.o(i.STMFLASH_Write) refers to stm32f4xx_flash.o(i.FLASH_Unlock) for FLASH_Unlock
    stmflash.o(i.STMFLASH_Write) refers to stm32f4xx_flash.o(i.FLASH_DataCacheCmd) for FLASH_DataCacheCmd
    stmflash.o(i.STMFLASH_Write) refers to stmflash.o(i.STMFLASH_ReadWord) for STMFLASH_ReadWord
    stmflash.o(i.STMFLASH_Write) refers to stmflash.o(i.STMFLASH_GetFlashSector) for STMFLASH_GetFlashSector
    stmflash.o(i.STMFLASH_Write) refers to stm32f4xx_flash.o(i.FLASH_EraseSector) for FLASH_EraseSector
    stmflash.o(i.STMFLASH_Write) refers to stm32f4xx_flash.o(i.FLASH_ProgramWord) for FLASH_ProgramWord
    stmflash.o(i.STMFLASH_Write) refers to stm32f4xx_flash.o(i.FLASH_Lock) for FLASH_Lock
    usb_hcd.o(i.HCD_HC_Init) refers to usb_core.o(i.USB_OTG_HC_Init) for USB_OTG_HC_Init
    usb_hcd.o(i.HCD_Init) refers to usb_core.o(i.USB_OTG_SelectCore) for USB_OTG_SelectCore
    usb_hcd.o(i.HCD_Init) refers to usb_core.o(i.USB_OTG_DisableGlobalInt) for USB_OTG_DisableGlobalInt
    usb_hcd.o(i.HCD_Init) refers to usb_core.o(i.USB_OTG_CoreInit) for USB_OTG_CoreInit
    usb_hcd.o(i.HCD_Init) refers to usb_core.o(i.USB_OTG_SetCurrentMode) for USB_OTG_SetCurrentMode
    usb_hcd.o(i.HCD_Init) refers to usb_core.o(i.USB_OTG_CoreInitHost) for USB_OTG_CoreInitHost
    usb_hcd.o(i.HCD_Init) refers to usb_core.o(i.USB_OTG_EnableGlobalInt) for USB_OTG_EnableGlobalInt
    usb_hcd.o(i.HCD_ResetPort) refers to usb_core.o(i.USB_OTG_ResetPort) for USB_OTG_ResetPort
    usb_hcd.o(i.HCD_SubmitRequest) refers to usb_core.o(i.USB_OTG_HC_StartXfer) for USB_OTG_HC_StartXfer
    usb_core.o(i.USB_OTG_CoreInit) refers to usb_core.o(i.USB_OTG_CoreReset) for USB_OTG_CoreReset
    usb_core.o(i.USB_OTG_CoreInit) refers to usb_bsp.o(i.USB_OTG_BSP_mDelay) for USB_OTG_BSP_mDelay
    usb_core.o(i.USB_OTG_CoreInitHost) refers to usb_bsp.o(i.USB_OTG_BSP_ConfigVBUS) for USB_OTG_BSP_ConfigVBUS
    usb_core.o(i.USB_OTG_CoreInitHost) refers to usb_core.o(i.USB_OTG_InitFSLSPClkSel) for USB_OTG_InitFSLSPClkSel
    usb_core.o(i.USB_OTG_CoreInitHost) refers to usb_core.o(i.USB_OTG_ResetPort) for USB_OTG_ResetPort
    usb_core.o(i.USB_OTG_CoreInitHost) refers to usb_core.o(i.USB_OTG_FlushTxFifo) for USB_OTG_FlushTxFifo
    usb_core.o(i.USB_OTG_CoreInitHost) refers to usb_core.o(i.USB_OTG_FlushRxFifo) for USB_OTG_FlushRxFifo
    usb_core.o(i.USB_OTG_CoreInitHost) refers to usb_core.o(i.USB_OTG_DriveVbus) for USB_OTG_DriveVbus
    usb_core.o(i.USB_OTG_CoreInitHost) refers to usb_core.o(i.USB_OTG_EnableHostInt) for USB_OTG_EnableHostInt
    usb_core.o(i.USB_OTG_CoreReset) refers to usb_bsp.o(i.USB_OTG_BSP_uDelay) for USB_OTG_BSP_uDelay
    usb_core.o(i.USB_OTG_DriveVbus) refers to usb_bsp.o(i.USB_OTG_BSP_DriveVBUS) for USB_OTG_BSP_DriveVBUS
    usb_core.o(i.USB_OTG_DriveVbus) refers to usb_core.o(i.USB_OTG_ReadHPRT0) for USB_OTG_ReadHPRT0
    usb_core.o(i.USB_OTG_DriveVbus) refers to usb_bsp.o(i.USB_OTG_BSP_mDelay) for USB_OTG_BSP_mDelay
    usb_core.o(i.USB_OTG_EnableHostInt) refers to usb_core.o(i.USB_OTG_EnableCommonInt) for USB_OTG_EnableCommonInt
    usb_core.o(i.USB_OTG_FlushRxFifo) refers to usb_bsp.o(i.USB_OTG_BSP_uDelay) for USB_OTG_BSP_uDelay
    usb_core.o(i.USB_OTG_FlushTxFifo) refers to usb_bsp.o(i.USB_OTG_BSP_uDelay) for USB_OTG_BSP_uDelay
    usb_core.o(i.USB_OTG_HC_StartXfer) refers to usb_core.o(i.USB_OTG_IsEvenFrame) for USB_OTG_IsEvenFrame
    usb_core.o(i.USB_OTG_HC_StartXfer) refers to usb_core.o(i.USB_OTG_WritePacket) for USB_OTG_WritePacket
    usb_core.o(i.USB_OTG_IsDeviceMode) refers to usb_core.o(i.USB_OTG_GetMode) for USB_OTG_GetMode
    usb_core.o(i.USB_OTG_IsHostMode) refers to usb_core.o(i.USB_OTG_GetMode) for USB_OTG_GetMode
    usb_core.o(i.USB_OTG_ResetPort) refers to usb_core.o(i.USB_OTG_ReadHPRT0) for USB_OTG_ReadHPRT0
    usb_core.o(i.USB_OTG_ResetPort) refers to usb_bsp.o(i.USB_OTG_BSP_mDelay) for USB_OTG_BSP_mDelay
    usb_core.o(i.USB_OTG_SetCurrentMode) refers to usb_bsp.o(i.USB_OTG_BSP_mDelay) for USB_OTG_BSP_mDelay
    usb_core.o(i.USB_OTG_StopHost) refers to usb_core.o(i.USB_OTG_FlushRxFifo) for USB_OTG_FlushRxFifo
    usb_core.o(i.USB_OTG_StopHost) refers to usb_core.o(i.USB_OTG_FlushTxFifo) for USB_OTG_FlushTxFifo
    usb_hcd_int.o(i.USBH_OTG_ISR_Handler) refers to usb_core.o(i.USB_OTG_IsHostMode) for USB_OTG_IsHostMode
    usb_hcd_int.o(i.USBH_OTG_ISR_Handler) refers to usb_core.o(i.USB_OTG_ReadCoreItr) for USB_OTG_ReadCoreItr
    usb_hcd_int.o(i.USBH_OTG_ISR_Handler) refers to usb_hcd_int.o(i.USB_OTG_USBH_handle_sof_ISR) for USB_OTG_USBH_handle_sof_ISR
    usb_hcd_int.o(i.USBH_OTG_ISR_Handler) refers to usb_hcd_int.o(i.USB_OTG_USBH_handle_rx_qlvl_ISR) for USB_OTG_USBH_handle_rx_qlvl_ISR
    usb_hcd_int.o(i.USBH_OTG_ISR_Handler) refers to usb_hcd_int.o(i.USB_OTG_USBH_handle_nptxfempty_ISR) for USB_OTG_USBH_handle_nptxfempty_ISR
    usb_hcd_int.o(i.USBH_OTG_ISR_Handler) refers to usb_hcd_int.o(i.USB_OTG_USBH_handle_ptxfempty_ISR) for USB_OTG_USBH_handle_ptxfempty_ISR
    usb_hcd_int.o(i.USBH_OTG_ISR_Handler) refers to usb_hcd_int.o(i.USB_OTG_USBH_handle_hc_ISR) for USB_OTG_USBH_handle_hc_ISR
    usb_hcd_int.o(i.USBH_OTG_ISR_Handler) refers to usb_hcd_int.o(i.USB_OTG_USBH_handle_port_ISR) for USB_OTG_USBH_handle_port_ISR
    usb_hcd_int.o(i.USBH_OTG_ISR_Handler) refers to usb_hcd_int.o(i.USB_OTG_USBH_handle_Disconnect_ISR) for USB_OTG_USBH_handle_Disconnect_ISR
    usb_hcd_int.o(i.USBH_OTG_ISR_Handler) refers to usb_hcd_int.o(i.USB_OTG_USBH_handle_IncompletePeriodicXfer_ISR) for USB_OTG_USBH_handle_IncompletePeriodicXfer_ISR
    usb_hcd_int.o(i.USB_OTG_USBH_handle_Disconnect_ISR) refers to usbh_core.o(.data) for USBH_HCD_INT_fops
    usb_hcd_int.o(i.USB_OTG_USBH_handle_hc_ISR) refers to usb_core.o(i.USB_OTG_ReadHostAllChannels_intr) for USB_OTG_ReadHostAllChannels_intr
    usb_hcd_int.o(i.USB_OTG_USBH_handle_hc_ISR) refers to usb_hcd_int.o(i.USB_OTG_USBH_handle_hc_n_In_ISR) for USB_OTG_USBH_handle_hc_n_In_ISR
    usb_hcd_int.o(i.USB_OTG_USBH_handle_hc_ISR) refers to usb_hcd_int.o(i.USB_OTG_USBH_handle_hc_n_Out_ISR) for USB_OTG_USBH_handle_hc_n_Out_ISR
    usb_hcd_int.o(i.USB_OTG_USBH_handle_hc_n_In_ISR) refers to usb_core.o(i.USB_OTG_HC_Halt) for USB_OTG_HC_Halt
    usb_hcd_int.o(i.USB_OTG_USBH_handle_hc_n_Out_ISR) refers to usb_core.o(i.USB_OTG_HC_Halt) for USB_OTG_HC_Halt
    usb_hcd_int.o(i.USB_OTG_USBH_handle_hc_n_Out_ISR) refers to usb_core.o(i.USB_OTG_HC_DoPing) for USB_OTG_HC_DoPing
    usb_hcd_int.o(i.USB_OTG_USBH_handle_nptxfempty_ISR) refers to usb_core.o(i.USB_OTG_WritePacket) for USB_OTG_WritePacket
    usb_hcd_int.o(i.USB_OTG_USBH_handle_port_ISR) refers to usb_core.o(i.USB_OTG_InitFSLSPClkSel) for USB_OTG_InitFSLSPClkSel
    usb_hcd_int.o(i.USB_OTG_USBH_handle_port_ISR) refers to usb_core.o(i.USB_OTG_ResetPort) for USB_OTG_ResetPort
    usb_hcd_int.o(i.USB_OTG_USBH_handle_port_ISR) refers to usbh_core.o(.data) for USBH_HCD_INT_fops
    usb_hcd_int.o(i.USB_OTG_USBH_handle_ptxfempty_ISR) refers to usb_core.o(i.USB_OTG_WritePacket) for USB_OTG_WritePacket
    usb_hcd_int.o(i.USB_OTG_USBH_handle_rx_qlvl_ISR) refers to usb_core.o(i.USB_OTG_ReadPacket) for USB_OTG_ReadPacket
    usb_hcd_int.o(i.USB_OTG_USBH_handle_sof_ISR) refers to usbh_core.o(.data) for USBH_HCD_INT_fops
    usbh_core.o(i.USBH_DeInit) refers to usbh_hcs.o(i.USBH_Free_Channel) for USBH_Free_Channel
    usbh_core.o(i.USBH_HandleControl) refers to usbh_ioreq.o(i.USBH_CtlSendSetup) for USBH_CtlSendSetup
    usbh_core.o(i.USBH_HandleControl) refers to usb_hcd.o(i.HCD_GetURB_State) for HCD_GetURB_State
    usbh_core.o(i.USBH_HandleControl) refers to usb_hcd.o(i.HCD_GetCurrentFrame) for HCD_GetCurrentFrame
    usbh_core.o(i.USBH_HandleControl) refers to usbh_ioreq.o(i.USBH_CtlReceiveData) for USBH_CtlReceiveData
    usbh_core.o(i.USBH_HandleControl) refers to usbh_ioreq.o(i.USBH_CtlSendData) for USBH_CtlSendData
    usbh_core.o(i.USBH_HandleControl) refers to usbh_core.o(.data) for timeout
    usbh_core.o(i.USBH_HandleEnum) refers to usbh_stdreq.o(i.USBH_Get_DevDesc) for USBH_Get_DevDesc
    usbh_core.o(i.USBH_HandleEnum) refers to usb_hcd.o(i.HCD_ResetPort) for HCD_ResetPort
    usbh_core.o(i.USBH_HandleEnum) refers to usbh_hcs.o(i.USBH_Modify_Channel) for USBH_Modify_Channel
    usbh_core.o(i.USBH_HandleEnum) refers to usbh_stdreq.o(i.USBH_SetAddress) for USBH_SetAddress
    usbh_core.o(i.USBH_HandleEnum) refers to usb_bsp.o(i.USB_OTG_BSP_mDelay) for USB_OTG_BSP_mDelay
    usbh_core.o(i.USBH_HandleEnum) refers to usbh_stdreq.o(i.USBH_Get_CfgDesc) for USBH_Get_CfgDesc
    usbh_core.o(i.USBH_HandleEnum) refers to usbh_stdreq.o(i.USBH_Get_StringDesc) for USBH_Get_StringDesc
    usbh_core.o(i.USBH_HandleEnum) refers to usbh_stdreq.o(i.USBH_SetCfg) for USBH_SetCfg
    usbh_core.o(i.USBH_Init) refers to usb_bsp.o(i.USB_OTG_BSP_Init) for USB_OTG_BSP_Init
    usbh_core.o(i.USBH_Init) refers to usb_bsp.o(i.USB_OTG_BSP_ConfigVBUS) for USB_OTG_BSP_ConfigVBUS
    usbh_core.o(i.USBH_Init) refers to usbh_core.o(i.USBH_DeInit) for USBH_DeInit
    usbh_core.o(i.USBH_Init) refers to usb_hcd.o(i.HCD_Init) for HCD_Init
    usbh_core.o(i.USBH_Init) refers to usb_bsp.o(i.USB_OTG_BSP_EnableInterrupt) for USB_OTG_BSP_EnableInterrupt
    usbh_core.o(i.USBH_Process) refers to usb_hcd.o(i.HCD_IsDeviceConnected) for HCD_IsDeviceConnected
    usbh_core.o(i.USBH_Process) refers to usb_bsp.o(i.USB_OTG_BSP_mDelay) for USB_OTG_BSP_mDelay
    usbh_core.o(i.USBH_Process) refers to usbh_hcs.o(i.USBH_Alloc_Channel) for USBH_Alloc_Channel
    usbh_core.o(i.USBH_Process) refers to usb_hcd.o(i.HCD_ResetPort) for HCD_ResetPort
    usbh_core.o(i.USBH_Process) refers to usb_hcd.o(i.HCD_GetCurrentSpeed) for HCD_GetCurrentSpeed
    usbh_core.o(i.USBH_Process) refers to usbh_hcs.o(i.USBH_Open_Channel) for USBH_Open_Channel
    usbh_core.o(i.USBH_Process) refers to usbh_core.o(i.USBH_HandleEnum) for USBH_HandleEnum
    usbh_core.o(i.USBH_Process) refers to usbh_core.o(i.USBH_ErrorHandle) for USBH_ErrorHandle
    usbh_core.o(i.USBH_Process) refers to usbh_core.o(i.USBH_HandleControl) for USBH_HandleControl
    usbh_core.o(i.USBH_Process) refers to usbh_core.o(i.USBH_DeInit) for USBH_DeInit
    usbh_core.o(i.USBH_Process) refers to usbh_hcs.o(i.USBH_DeAllocate_AllChannel) for USBH_DeAllocate_AllChannel
    usbh_core.o(.data) refers to usbh_core.o(i.USBH_SOF) for USBH_SOF
    usbh_core.o(.data) refers to usbh_core.o(i.USBH_Connected) for USBH_Connected
    usbh_core.o(.data) refers to usbh_core.o(i.USBH_Disconnected) for USBH_Disconnected
    usbh_hcs.o(i.USBH_Alloc_Channel) refers to usbh_hcs.o(i.USBH_GetFreeChannel) for USBH_GetFreeChannel
    usbh_hcs.o(i.USBH_Modify_Channel) refers to usb_core.o(i.USB_OTG_HC_Init) for USB_OTG_HC_Init
    usbh_hcs.o(i.USBH_Open_Channel) refers to usb_core.o(i.USB_OTG_HC_Init) for USB_OTG_HC_Init
    usbh_ioreq.o(i.USBH_BulkReceiveData) refers to usb_hcd.o(i.HCD_SubmitRequest) for HCD_SubmitRequest
    usbh_ioreq.o(i.USBH_BulkSendData) refers to usb_hcd.o(i.HCD_SubmitRequest) for HCD_SubmitRequest
    usbh_ioreq.o(i.USBH_CtlReceiveData) refers to usb_hcd.o(i.HCD_SubmitRequest) for HCD_SubmitRequest
    usbh_ioreq.o(i.USBH_CtlReq) refers to usbh_ioreq.o(i.USBH_SubmitSetupRequest) for USBH_SubmitSetupRequest
    usbh_ioreq.o(i.USBH_CtlSendData) refers to usb_hcd.o(i.HCD_SubmitRequest) for HCD_SubmitRequest
    usbh_ioreq.o(i.USBH_CtlSendSetup) refers to usb_hcd.o(i.HCD_SubmitRequest) for HCD_SubmitRequest
    usbh_ioreq.o(i.USBH_InterruptReceiveData) refers to usb_hcd.o(i.HCD_SubmitRequest) for HCD_SubmitRequest
    usbh_ioreq.o(i.USBH_InterruptSendData) refers to usb_hcd.o(i.HCD_SubmitRequest) for HCD_SubmitRequest
    usbh_ioreq.o(i.USBH_IsocReceiveData) refers to usb_hcd.o(i.HCD_SubmitRequest) for HCD_SubmitRequest
    usbh_ioreq.o(i.USBH_IsocSendData) refers to usb_hcd.o(i.HCD_SubmitRequest) for HCD_SubmitRequest
    usbh_stdreq.o(i.USBH_ClrFeature) refers to usbh_ioreq.o(i.USBH_CtlReq) for USBH_CtlReq
    usbh_stdreq.o(i.USBH_GetDescriptor) refers to usbh_ioreq.o(i.USBH_CtlReq) for USBH_CtlReq
    usbh_stdreq.o(i.USBH_Get_CfgDesc) refers to usbh_stdreq.o(i.USBH_GetDescriptor) for USBH_GetDescriptor
    usbh_stdreq.o(i.USBH_Get_CfgDesc) refers to usbh_stdreq.o(i.USBH_ParseCfgDesc) for USBH_ParseCfgDesc
    usbh_stdreq.o(i.USBH_Get_CfgDesc) refers to usbh_stdreq.o(.bss) for USBH_CfgDesc
    usbh_stdreq.o(i.USBH_Get_DevDesc) refers to usbh_stdreq.o(i.USBH_GetDescriptor) for USBH_GetDescriptor
    usbh_stdreq.o(i.USBH_Get_DevDesc) refers to usbh_stdreq.o(i.USBH_ParseDevDesc) for USBH_ParseDevDesc
    usbh_stdreq.o(i.USBH_Get_StringDesc) refers to usbh_stdreq.o(i.USBH_GetDescriptor) for USBH_GetDescriptor
    usbh_stdreq.o(i.USBH_Get_StringDesc) refers to usbh_stdreq.o(i.USBH_ParseStringDesc) for USBH_ParseStringDesc
    usbh_stdreq.o(i.USBH_ParseCfgDesc) refers to usbh_stdreq.o(i.USBH_GetNextDesc) for USBH_GetNextDesc
    usbh_stdreq.o(i.USBH_ParseCfgDesc) refers to usbh_stdreq.o(i.USBH_ParseInterfaceDesc) for USBH_ParseInterfaceDesc
    usbh_stdreq.o(i.USBH_ParseCfgDesc) refers to usbh_stdreq.o(i.USBH_ParseEPDesc) for USBH_ParseEPDesc
    usbh_stdreq.o(i.USBH_ParseCfgDesc) refers to usbh_stdreq.o(.data) for prev_itf
    usbh_stdreq.o(i.USBH_SetAddress) refers to usbh_ioreq.o(i.USBH_CtlReq) for USBH_CtlReq
    usbh_stdreq.o(i.USBH_SetCfg) refers to usbh_ioreq.o(i.USBH_CtlReq) for USBH_CtlReq
    usbh_stdreq.o(i.USBH_SetInterface) refers to usbh_ioreq.o(i.USBH_CtlReq) for USBH_CtlReq
    usbh_msc_bot.o(i.USBH_MSC_BOT_Abort) refers to usbh_stdreq.o(i.USBH_ClrFeature) for USBH_ClrFeature
    usbh_msc_bot.o(i.USBH_MSC_BOT_Abort) refers to usbh_msc_core.o(.bss) for MSC_Machine
    usbh_msc_bot.o(i.USBH_MSC_BOT_Abort) refers to usbh_msc_bot.o(.data) for BOTStallErrorCount
    usbh_msc_bot.o(i.USBH_MSC_DecodeCSW) refers to usb_hcd.o(i.HCD_IsDeviceConnected) for HCD_IsDeviceConnected
    usbh_msc_bot.o(i.USBH_MSC_DecodeCSW) refers to usb_hcd.o(i.HCD_GetXferCnt) for HCD_GetXferCnt
    usbh_msc_bot.o(i.USBH_MSC_DecodeCSW) refers to usbh_msc_core.o(.bss) for MSC_Machine
    usbh_msc_bot.o(i.USBH_MSC_DecodeCSW) refers to usbh_msc_bot.o(.bss) for USBH_MSC_CSWData
    usbh_msc_bot.o(i.USBH_MSC_HandleBOTXfer) refers to usb_hcd.o(i.HCD_IsDeviceConnected) for HCD_IsDeviceConnected
    usbh_msc_bot.o(i.USBH_MSC_HandleBOTXfer) refers to usbh_ioreq.o(i.USBH_BulkSendData) for USBH_BulkSendData
    usbh_msc_bot.o(i.USBH_MSC_HandleBOTXfer) refers to usb_hcd.o(i.HCD_GetURB_State) for HCD_GetURB_State
    usbh_msc_bot.o(i.USBH_MSC_HandleBOTXfer) refers to usbh_ioreq.o(i.USBH_BulkReceiveData) for USBH_BulkReceiveData
    usbh_msc_bot.o(i.USBH_MSC_HandleBOTXfer) refers to usbh_msc_bot.o(i.USBH_MSC_DecodeCSW) for USBH_MSC_DecodeCSW
    usbh_msc_bot.o(i.USBH_MSC_HandleBOTXfer) refers to usbh_msc_bot.o(i.USBH_MSC_BOT_Abort) for USBH_MSC_BOT_Abort
    usbh_msc_bot.o(i.USBH_MSC_HandleBOTXfer) refers to usbh_msc_bot.o(.bss) for USBH_MSC_BOTXferParam
    usbh_msc_bot.o(i.USBH_MSC_HandleBOTXfer) refers to usbh_msc_core.o(.bss) for MSC_Machine
    usbh_msc_bot.o(i.USBH_MSC_HandleBOTXfer) refers to usbh_msc_bot.o(.data) for BOTStallErrorCount
    usbh_msc_bot.o(i.USBH_MSC_Init) refers to usb_hcd.o(i.HCD_IsDeviceConnected) for HCD_IsDeviceConnected
    usbh_msc_bot.o(i.USBH_MSC_Init) refers to usbh_msc_bot.o(.bss) for USBH_MSC_CBWData
    usbh_msc_bot.o(i.USBH_MSC_Init) refers to usbh_msc_bot.o(.data) for BOTStallErrorCount
    usbh_msc_bot.o(i.USBH_MSC_Init) refers to usbh_msc_core.o(.data) for MSCErrorCount
    usbh_msc_core.o(i.USBH_MSC_BOTReset) refers to usbh_ioreq.o(i.USBH_CtlReq) for USBH_CtlReq
    usbh_msc_core.o(i.USBH_MSC_ClassRequest) refers to usbh_msc_bot.o(.bss) for USBH_MSC_BOTXferParam
    usbh_msc_core.o(i.USBH_MSC_ErrorHandle) refers to usbh_msc_core.o(.data) for MSCErrorCount
    usbh_msc_core.o(i.USBH_MSC_ErrorHandle) refers to usbh_msc_bot.o(.bss) for USBH_MSC_BOTXferParam
    usbh_msc_core.o(i.USBH_MSC_GETMaxLUN) refers to usbh_ioreq.o(i.USBH_CtlReq) for USBH_CtlReq
    usbh_msc_core.o(i.USBH_MSC_GETMaxLUN) refers to usbh_msc_core.o(.bss) for MSC_Machine
    usbh_msc_core.o(i.USBH_MSC_Handle) refers to usb_hcd.o(i.HCD_IsDeviceConnected) for HCD_IsDeviceConnected
    usbh_msc_core.o(i.USBH_MSC_Handle) refers to usbh_msc_bot.o(i.USBH_MSC_Init) for USBH_MSC_Init
    usbh_msc_core.o(i.USBH_MSC_Handle) refers to usbh_msc_core.o(i.USBH_MSC_BOTReset) for USBH_MSC_BOTReset
    usbh_msc_core.o(i.USBH_MSC_Handle) refers to usbh_msc_core.o(i.USBH_MSC_GETMaxLUN) for USBH_MSC_GETMaxLUN
    usbh_msc_core.o(i.USBH_MSC_Handle) refers to usbh_stdreq.o(i.USBH_ClrFeature) for USBH_ClrFeature
    usbh_msc_core.o(i.USBH_MSC_Handle) refers to usbh_msc_scsi.o(i.USBH_MSC_TestUnitReady) for USBH_MSC_TestUnitReady
    usbh_msc_core.o(i.USBH_MSC_Handle) refers to usbh_msc_core.o(i.USBH_MSC_ErrorHandle) for USBH_MSC_ErrorHandle
    usbh_msc_core.o(i.USBH_MSC_Handle) refers to usbh_msc_scsi.o(i.USBH_MSC_ReadCapacity10) for USBH_MSC_ReadCapacity10
    usbh_msc_core.o(i.USBH_MSC_Handle) refers to usbh_msc_scsi.o(i.USBH_MSC_ModeSense6) for USBH_MSC_ModeSense6
    usbh_msc_core.o(i.USBH_MSC_Handle) refers to usbh_msc_scsi.o(i.USBH_MSC_RequestSense) for USBH_MSC_RequestSense
    usbh_msc_core.o(i.USBH_MSC_Handle) refers to usbh_msc_bot.o(i.USBH_MSC_HandleBOTXfer) for USBH_MSC_HandleBOTXfer
    usbh_msc_core.o(i.USBH_MSC_Handle) refers to usbh_msc_bot.o(.bss) for USBH_MSC_BOTXferParam
    usbh_msc_core.o(i.USBH_MSC_Handle) refers to usbh_msc_core.o(.bss) for MSC_Machine
    usbh_msc_core.o(i.USBH_MSC_Handle) refers to usbh_msc_core.o(.data) for maxLunExceed
    usbh_msc_core.o(i.USBH_MSC_InterfaceDeInit) refers to usb_core.o(i.USB_OTG_HC_Halt) for USB_OTG_HC_Halt
    usbh_msc_core.o(i.USBH_MSC_InterfaceDeInit) refers to usbh_hcs.o(i.USBH_Free_Channel) for USBH_Free_Channel
    usbh_msc_core.o(i.USBH_MSC_InterfaceDeInit) refers to usbh_msc_core.o(.bss) for MSC_Machine
    usbh_msc_core.o(i.USBH_MSC_InterfaceInit) refers to usbh_hcs.o(i.USBH_Alloc_Channel) for USBH_Alloc_Channel
    usbh_msc_core.o(i.USBH_MSC_InterfaceInit) refers to usbh_hcs.o(i.USBH_Open_Channel) for USBH_Open_Channel
    usbh_msc_core.o(i.USBH_MSC_InterfaceInit) refers to usbh_msc_core.o(.bss) for MSC_Machine
    usbh_msc_core.o(.data) refers to usbh_msc_core.o(i.USBH_MSC_InterfaceInit) for USBH_MSC_InterfaceInit
    usbh_msc_core.o(.data) refers to usbh_msc_core.o(i.USBH_MSC_InterfaceDeInit) for USBH_MSC_InterfaceDeInit
    usbh_msc_core.o(.data) refers to usbh_msc_core.o(i.USBH_MSC_ClassRequest) for USBH_MSC_ClassRequest
    usbh_msc_core.o(.data) refers to usbh_msc_core.o(i.USBH_MSC_Handle) for USBH_MSC_Handle
    usbh_msc_scsi.o(i.USBH_MSC_ModeSense6) refers to usb_hcd.o(i.HCD_IsDeviceConnected) for HCD_IsDeviceConnected
    usbh_msc_scsi.o(i.USBH_MSC_ModeSense6) refers to usbh_msc_bot.o(.bss) for USBH_MSC_BOTXferParam
    usbh_msc_scsi.o(i.USBH_MSC_ModeSense6) refers to usbh_msc_scsi.o(.bss) for USBH_DataInBuffer
    usbh_msc_scsi.o(i.USBH_MSC_Read10) refers to usb_hcd.o(i.HCD_IsDeviceConnected) for HCD_IsDeviceConnected
    usbh_msc_scsi.o(i.USBH_MSC_Read10) refers to usbh_msc_scsi.o(.data) for status
    usbh_msc_scsi.o(i.USBH_MSC_Read10) refers to usbh_msc_bot.o(.bss) for USBH_MSC_BOTXferParam
    usbh_msc_scsi.o(i.USBH_MSC_ReadCapacity10) refers to usb_hcd.o(i.HCD_IsDeviceConnected) for HCD_IsDeviceConnected
    usbh_msc_scsi.o(i.USBH_MSC_ReadCapacity10) refers to usbh_msc_bot.o(.bss) for USBH_MSC_BOTXferParam
    usbh_msc_scsi.o(i.USBH_MSC_ReadCapacity10) refers to usbh_msc_scsi.o(.bss) for USBH_DataInBuffer
    usbh_msc_scsi.o(i.USBH_MSC_RequestSense) refers to usb_hcd.o(i.HCD_IsDeviceConnected) for HCD_IsDeviceConnected
    usbh_msc_scsi.o(i.USBH_MSC_RequestSense) refers to usbh_msc_bot.o(.bss) for USBH_MSC_BOTXferParam
    usbh_msc_scsi.o(i.USBH_MSC_RequestSense) refers to usbh_msc_scsi.o(.bss) for USBH_DataInBuffer
    usbh_msc_scsi.o(i.USBH_MSC_TestUnitReady) refers to usb_hcd.o(i.HCD_IsDeviceConnected) for HCD_IsDeviceConnected
    usbh_msc_scsi.o(i.USBH_MSC_TestUnitReady) refers to usbh_msc_bot.o(.bss) for USBH_MSC_BOTXferParam
    usbh_msc_scsi.o(i.USBH_MSC_Write10) refers to usb_hcd.o(i.HCD_IsDeviceConnected) for HCD_IsDeviceConnected
    usbh_msc_scsi.o(i.USBH_MSC_Write10) refers to usbh_msc_bot.o(.bss) for USBH_MSC_BOTXferParam
    usbh_usr.o(i.CheckHMIUpdateFiles) refers to ff.o(i.f_open) for f_open
    usbh_usr.o(i.CheckHMIUpdateFiles) refers to ff.o(i.f_close) for f_close
    usbh_usr.o(i.CheckHMIUpdateFiles) refers to delay.o(i.delay_ms) for delay_ms
    usbh_usr.o(i.CheckHMIUpdateFiles) refers to exfuns.o(.data) for file
    usbh_usr.o(i.Check_HMI_Image_Index) refers to hmi_driver.o(i.ReadImgIdx) for ReadImgIdx
    usbh_usr.o(i.Check_HMI_Image_Index) refers to cmd_queue.o(i.queue_find_cmd) for queue_find_cmd
    usbh_usr.o(i.Check_HMI_Image_Index) refers to delay.o(i.delay_ms) for delay_ms
    usbh_usr.o(i.Check_HMI_Image_Index) refers to hmi_app.o(.bss) for cmd_buffer
    usbh_usr.o(i.Check_HMI_Image_Index) refers to usbh_usr.o(.data) for MAX_INDEX
    usbh_usr.o(i.Check_HMI_Image_Index) refers to usbh_usr.o(.bss) for hmi_Image_Index_Data
    usbh_usr.o(i.Explore_Disk) refers to ff.o(i.f_opendir) for f_opendir
    usbh_usr.o(i.Explore_Disk) refers to ff.o(i.f_readdir) for f_readdir
    usbh_usr.o(i.Explore_Disk) refers to strcpy.o(.text) for strcpy
    usbh_usr.o(i.Explore_Disk) refers to usb_hcd.o(i.HCD_IsDeviceConnected) for HCD_IsDeviceConnected
    usbh_usr.o(i.Explore_Disk) refers to bsp.o(.bss) for USB_OTG_Core
    usbh_usr.o(i.File_Read) refers to memseta.o(.text) for __aeabi_memclr4
    usbh_usr.o(i.File_Read) refers to ff.o(i.f_open) for f_open
    usbh_usr.o(i.File_Read) refers to ff.o(i.f_read) for f_read
    usbh_usr.o(i.File_Read) refers to ff.o(i.f_close) for f_close
    usbh_usr.o(i.OTG_FS_IRQHandler) refers to usb_hcd_int.o(i.USBH_OTG_ISR_Handler) for USBH_OTG_ISR_Handler
    usbh_usr.o(i.OTG_FS_IRQHandler) refers to bsp.o(.bss) for USB_OTG_Core
    usbh_usr.o(i.USBH_UDISK_Read) refers to usb_hcd.o(i.HCD_IsDeviceConnected) for HCD_IsDeviceConnected
    usbh_usr.o(i.USBH_UDISK_Read) refers to usbh_msc_scsi.o(i.USBH_MSC_Read10) for USBH_MSC_Read10
    usbh_usr.o(i.USBH_UDISK_Read) refers to usbh_msc_bot.o(i.USBH_MSC_HandleBOTXfer) for USBH_MSC_HandleBOTXfer
    usbh_usr.o(i.USBH_UDISK_Read) refers to bsp.o(.bss) for USB_OTG_Core
    usbh_usr.o(i.USBH_UDISK_Read) refers to usbh_usr.o(.data) for AppState
    usbh_usr.o(i.USBH_UDISK_Status) refers to usb_hcd.o(i.HCD_IsDeviceConnected) for HCD_IsDeviceConnected
    usbh_usr.o(i.USBH_UDISK_Status) refers to bsp.o(.bss) for USB_OTG_Core
    usbh_usr.o(i.USBH_UDISK_Write) refers to usb_hcd.o(i.HCD_IsDeviceConnected) for HCD_IsDeviceConnected
    usbh_usr.o(i.USBH_UDISK_Write) refers to usbh_msc_scsi.o(i.USBH_MSC_Write10) for USBH_MSC_Write10
    usbh_usr.o(i.USBH_UDISK_Write) refers to usbh_msc_bot.o(i.USBH_MSC_HandleBOTXfer) for USBH_MSC_HandleBOTXfer
    usbh_usr.o(i.USBH_UDISK_Write) refers to bsp.o(.bss) for USB_OTG_Core
    usbh_usr.o(i.USBH_UDISK_Write) refers to usbh_usr.o(.data) for AppState
    usbh_usr.o(i.USBH_USR_DeInit) refers to usbh_usr.o(.data) for AppState
    usbh_usr.o(i.USBH_USR_EnumerationDone) refers to printfa.o(i.__0printf) for __2printf
    usbh_usr.o(i.USBH_USR_MSC_Application) refers to usbh_usr.o(i.USH_User_App) for USH_User_App
    usbh_usr.o(i.USBH_USR_MSC_Application) refers to usbh_usr.o(.data) for AppState
    usbh_usr.o(i.USH_User_App) refers to printfa.o(i.__0printf) for __2printf
    usbh_usr.o(i.USH_User_App) refers to ff.o(i.f_mount) for f_mount
    usbh_usr.o(i.USH_User_App) refers to hmi_driver.o(i.SetScreen) for SetScreen
    usbh_usr.o(i.USH_User_App) refers to hmi_driver.o(i.SetProgressValue) for SetProgressValue
    usbh_usr.o(i.USH_User_App) refers to cmd_queue.o(i.queue_find_cmd) for queue_find_cmd
    usbh_usr.o(i.USH_User_App) refers to hmi_app.o(i.ProcessMessage) for ProcessMessage
    usbh_usr.o(i.USH_User_App) refers to usb_hcd.o(i.HCD_IsDeviceConnected) for HCD_IsDeviceConnected
    usbh_usr.o(i.USH_User_App) refers to ff.o(i.f_open) for f_open
    usbh_usr.o(i.USH_User_App) refers to ff.o(i.f_read) for f_read
    usbh_usr.o(i.USH_User_App) refers to iap.o(i.iap_write_appbin) for iap_write_appbin
    usbh_usr.o(i.USH_User_App) refers to f2d.o(.text) for __aeabi_f2d
    usbh_usr.o(i.USH_User_App) refers to delay.o(i.delay_ms) for delay_ms
    usbh_usr.o(i.USH_User_App) refers to ff.o(i.f_close) for f_close
    usbh_usr.o(i.USH_User_App) refers to usbh_usr.o(i.UpdateHMI) for UpdateHMI
    usbh_usr.o(i.USH_User_App) refers to bell.o(i.BELL_Work) for BELL_Work
    usbh_usr.o(i.USH_User_App) refers to usbh_usr.o(.data) for Detect_USB
    usbh_usr.o(i.USH_User_App) refers to exfuns.o(.bss) for fs
    usbh_usr.o(i.USH_User_App) refers to usart.o(.data) for HMI_UPGRAD_INDEX
    usbh_usr.o(i.USH_User_App) refers to hmi_app.o(.bss) for cmd_buffer
    usbh_usr.o(i.USH_User_App) refers to bsp.o(.bss) for USB_OTG_Core
    usbh_usr.o(i.USH_User_App) refers to exfuns.o(.data) for file
    usbh_usr.o(i.USH_User_App) refers to usbh_usr.o(.bss) for update_buf
    usbh_usr.o(i.UpdateHMI) refers to usbh_usr.o(i.CheckHMIUpdateFiles) for CheckHMIUpdateFiles
    usbh_usr.o(i.UpdateHMI) refers to printfa.o(i.__0printf) for __2printf
    usbh_usr.o(i.UpdateHMI) refers to usbh_usr.o(i.UpdateHMIByFileIndex) for UpdateHMIByFileIndex
    usbh_usr.o(i.UpdateHMI) refers to usbh_usr.o(i.Check_HMI_Image_Index) for Check_HMI_Image_Index
    usbh_usr.o(i.UpdateHMI) refers to usbh_usr.o(i.UpdateHMI_Image) for UpdateHMI_Image
    usbh_usr.o(i.UpdateHMI) refers to usbh_usr.o(.data) for Update_HMI_Status
    usbh_usr.o(i.UpdateHMIByFileIndex) refers to ff.o(i.f_mount) for f_mount
    usbh_usr.o(i.UpdateHMIByFileIndex) refers to ff.o(i.f_open) for f_open
    usbh_usr.o(i.UpdateHMIByFileIndex) refers to delay.o(i.delay_ms) for delay_ms
    usbh_usr.o(i.UpdateHMIByFileIndex) refers to hmi_driver.o(i.BeginUpdateHMI) for BeginUpdateHMI
    usbh_usr.o(i.UpdateHMIByFileIndex) refers to hmi_driver.o(i.SendFiledData) for SendFiledData
    usbh_usr.o(i.UpdateHMIByFileIndex) refers to ff.o(i.f_close) for f_close
    usbh_usr.o(i.UpdateHMIByFileIndex) refers to ff.o(i.f_read) for f_read
    usbh_usr.o(i.UpdateHMIByFileIndex) refers to f2d.o(.text) for __aeabi_f2d
    usbh_usr.o(i.UpdateHMIByFileIndex) refers to printfa.o(i.__0printf) for __2printf
    usbh_usr.o(i.UpdateHMIByFileIndex) refers to hmi_driver.o(i.EndUpdateHMI) for EndUpdateHMI
    usbh_usr.o(i.UpdateHMIByFileIndex) refers to usbh_usr.o(.data) for HMI_Update_Index
    usbh_usr.o(i.UpdateHMIByFileIndex) refers to exfuns.o(.bss) for fs
    usbh_usr.o(i.UpdateHMIByFileIndex) refers to exfuns.o(.data) for file
    usbh_usr.o(i.UpdateHMIByFileIndex) refers to usbh_usr.o(.bss) for update_buf
    usbh_usr.o(i.UpdateHMI_Image) refers to ff.o(i.f_mount) for f_mount
    usbh_usr.o(i.UpdateHMI_Image) refers to printfa.o(i.__0sprintf) for __2sprintf
    usbh_usr.o(i.UpdateHMI_Image) refers to ff.o(i.f_open) for f_open
    usbh_usr.o(i.UpdateHMI_Image) refers to printfa.o(i.__0printf) for __2printf
    usbh_usr.o(i.UpdateHMI_Image) refers to hmi_driver.o(i.BeginUpdateHMI) for BeginUpdateHMI
    usbh_usr.o(i.UpdateHMI_Image) refers to ff.o(i.f_close) for f_close
    usbh_usr.o(i.UpdateHMI_Image) refers to delay.o(i.delay_ms) for delay_ms
    usbh_usr.o(i.UpdateHMI_Image) refers to hmi_driver.o(i.SendFiledData) for SendFiledData
    usbh_usr.o(i.UpdateHMI_Image) refers to ff.o(i.f_read) for f_read
    usbh_usr.o(i.UpdateHMI_Image) refers to f2d.o(.text) for __aeabi_f2d
    usbh_usr.o(i.UpdateHMI_Image) refers to hmi_driver.o(i.EndUpdateHMI) for EndUpdateHMI
    usbh_usr.o(i.UpdateHMI_Image) refers to exfuns.o(.bss) for fs
    usbh_usr.o(i.UpdateHMI_Image) refers to usbh_usr.o(.bss) for buffer
    usbh_usr.o(i.UpdateHMI_Image) refers to exfuns.o(.data) for file
    usbh_usr.o(.data) refers to usbh_usr.o(i.USBH_USR_Init) for USBH_USR_Init
    usbh_usr.o(.data) refers to usbh_usr.o(i.USBH_USR_DeInit) for USBH_USR_DeInit
    usbh_usr.o(.data) refers to usbh_usr.o(i.USBH_USR_DeviceAttached) for USBH_USR_DeviceAttached
    usbh_usr.o(.data) refers to usbh_usr.o(i.USBH_USR_ResetDevice) for USBH_USR_ResetDevice
    usbh_usr.o(.data) refers to usbh_usr.o(i.USBH_USR_DeviceDisconnected) for USBH_USR_DeviceDisconnected
    usbh_usr.o(.data) refers to usbh_usr.o(i.USBH_USR_OverCurrentDetected) for USBH_USR_OverCurrentDetected
    usbh_usr.o(.data) refers to usbh_usr.o(i.USBH_USR_DeviceSpeedDetected) for USBH_USR_DeviceSpeedDetected
    usbh_usr.o(.data) refers to usbh_usr.o(i.USBH_USR_Device_DescAvailable) for USBH_USR_Device_DescAvailable
    usbh_usr.o(.data) refers to usbh_usr.o(i.USBH_USR_DeviceAddressAssigned) for USBH_USR_DeviceAddressAssigned
    usbh_usr.o(.data) refers to usbh_usr.o(i.USBH_USR_Configuration_DescAvailable) for USBH_USR_Configuration_DescAvailable
    usbh_usr.o(.data) refers to usbh_usr.o(i.USBH_USR_Manufacturer_String) for USBH_USR_Manufacturer_String
    usbh_usr.o(.data) refers to usbh_usr.o(i.USBH_USR_Product_String) for USBH_USR_Product_String
    usbh_usr.o(.data) refers to usbh_usr.o(i.USBH_USR_SerialNum_String) for USBH_USR_SerialNum_String
    usbh_usr.o(.data) refers to usbh_usr.o(i.USBH_USR_EnumerationDone) for USBH_USR_EnumerationDone
    usbh_usr.o(.data) refers to usbh_usr.o(i.USBH_USR_UserInput) for USBH_USR_UserInput
    usbh_usr.o(.data) refers to usbh_usr.o(i.USBH_USR_MSC_Application) for USBH_USR_MSC_Application
    usbh_usr.o(.data) refers to usbh_usr.o(i.USBH_USR_DeviceNotSupported) for USBH_USR_DeviceNotSupported
    usbh_usr.o(.data) refers to usbh_usr.o(i.USBH_USR_UnrecoveredError) for USBH_USR_UnrecoveredError
    usb_bsp.o(i.USB_OTG_BSP_EnableInterrupt) refers to misc.o(i.NVIC_Init) for NVIC_Init
    usb_bsp.o(i.USB_OTG_BSP_Init) refers to stm32f4xx_rcc.o(i.RCC_AHB1PeriphClockCmd) for RCC_AHB1PeriphClockCmd
    usb_bsp.o(i.USB_OTG_BSP_Init) refers to stm32f4xx_rcc.o(i.RCC_AHB2PeriphClockCmd) for RCC_AHB2PeriphClockCmd
    usb_bsp.o(i.USB_OTG_BSP_Init) refers to stm32f4xx_gpio.o(i.GPIO_Init) for GPIO_Init
    usb_bsp.o(i.USB_OTG_BSP_Init) refers to stm32f4xx_gpio.o(i.GPIO_PinAFConfig) for GPIO_PinAFConfig
    usb_bsp.o(i.USB_OTG_BSP_mDelay) refers to delay.o(i.delay_ms) for delay_ms
    usb_bsp.o(i.USB_OTG_BSP_uDelay) refers to delay.o(i.delay_us) for delay_us
    delay.o(i.delay_init) refers to misc.o(i.SysTick_CLKSourceConfig) for SysTick_CLKSourceConfig
    delay.o(i.delay_init) refers to delay.o(.data) for fac_us
    delay.o(i.delay_ms) refers to delay.o(i.delay_xms) for delay_xms
    delay.o(i.delay_us) refers to delay.o(.data) for fac_us
    delay.o(i.delay_xms) refers to delay.o(.data) for fac_ms
    sys.o(i.LED_Init) refers to stm32f4xx_rcc.o(i.RCC_AHB1PeriphClockCmd) for RCC_AHB1PeriphClockCmd
    sys.o(i.LED_Init) refers to stm32f4xx_gpio.o(i.GPIO_Init) for GPIO_Init
    sys.o(i.LED_Work) refers to stm32f4xx_gpio.o(i.GPIO_SetBits) for GPIO_SetBits
    sys.o(i.LED_Work) refers to stm32f4xx_gpio.o(i.GPIO_ResetBits) for GPIO_ResetBits
    sys.o(i.wdg_init) refers to stm32f4xx_rcc.o(i.RCC_AHB1PeriphClockCmd) for RCC_AHB1PeriphClockCmd
    sys.o(i.wdg_init) refers to stm32f4xx_gpio.o(i.GPIO_Init) for GPIO_Init
    sys.o(i.wdg_init) refers to stm32f4xx_gpio.o(i.GPIO_ResetBits) for GPIO_ResetBits
    cmd_queue.o(i.queue_Byte) refers to cmd_queue.o(i.queue_pop) for queue_pop
    cmd_queue.o(i.queue_Byte) refers to cmd_queue.o(i.queue_size) for queue_size
    cmd_queue.o(i.queue_Byte) refers to cmd_queue.o(.data) for cmd_pos
    cmd_queue.o(i.queue_find_cmd) refers to cmd_queue.o(i.queue_pop) for queue_pop
    cmd_queue.o(i.queue_find_cmd) refers to cmd_queue.o(i.queue_size) for queue_size
    cmd_queue.o(i.queue_find_cmd) refers to cmd_queue.o(.data) for cmd_pos
    cmd_queue.o(i.queue_pop) refers to cmd_queue.o(.bss) for que
    cmd_queue.o(i.queue_push) refers to cmd_queue.o(.bss) for que
    cmd_queue.o(i.queue_reset) refers to cmd_queue.o(.bss) for que
    cmd_queue.o(i.queue_reset) refers to cmd_queue.o(.data) for cmd_state
    cmd_queue.o(i.queue_size) refers to cmd_queue.o(.bss) for que
    hmi_app.o(i.NotifyButton) refers to usart.o(.data) for HMI_UPGRAD_INDEX
    hmi_app.o(i.NotifyButton) refers to usbh_usr.o(.data) for answer
    hmi_app.o(i.NotifyScreen) refers to hmi_app.o(.data) for current_screen_id
    hmi_app.o(i.ProcessMessage) refers to hmi_app.o(i.NotifyScreen) for NotifyScreen
    hmi_app.o(i.ProcessMessage) refers to hmi_app.o(i.NotifyButton) for NotifyButton
    hmi_app.o(i.SetTextValueFloat) refers to f2d.o(.text) for __aeabi_f2d
    hmi_app.o(i.SetTextValueFloat) refers to printfa.o(i.__0sprintf) for __2sprintf
    hmi_app.o(i.SetTextValueFloat) refers to hmi_driver.o(i.SetTextValue) for SetTextValue
    hmi_app.o(i.SetTextValueint32_t) refers to printfa.o(i.__0sprintf) for __2sprintf
    hmi_app.o(i.SetTextValueint32_t) refers to hmi_driver.o(i.SetTextValue) for SetTextValue
    hmi_driver.o(i.AnimationPause) refers to usart.o(i.HMI_SendSingleChar) for HMI_SendSingleChar
    hmi_driver.o(i.AnimationPlayFrame) refers to usart.o(i.HMI_SendSingleChar) for HMI_SendSingleChar
    hmi_driver.o(i.AnimationPlayNext) refers to usart.o(i.HMI_SendSingleChar) for HMI_SendSingleChar
    hmi_driver.o(i.AnimationPlayPrev) refers to usart.o(i.HMI_SendSingleChar) for HMI_SendSingleChar
    hmi_driver.o(i.AnimationStart) refers to usart.o(i.HMI_SendSingleChar) for HMI_SendSingleChar
    hmi_driver.o(i.AnimationStop) refers to usart.o(i.HMI_SendSingleChar) for HMI_SendSingleChar
    hmi_driver.o(i.BatchBegin) refers to usart.o(i.HMI_SendSingleChar) for HMI_SendSingleChar
    hmi_driver.o(i.BatchEnd) refers to usart.o(i.HMI_SendSingleChar) for HMI_SendSingleChar
    hmi_driver.o(i.BatchSetButtonValue) refers to usart.o(i.HMI_SendSingleChar) for HMI_SendSingleChar
    hmi_driver.o(i.BatchSetFrame) refers to usart.o(i.HMI_SendSingleChar) for HMI_SendSingleChar
    hmi_driver.o(i.BatchSetMeterValue) refers to usart.o(i.HMI_SendSingleChar) for HMI_SendSingleChar
    hmi_driver.o(i.BatchSetProgressValue) refers to usart.o(i.HMI_SendSingleChar) for HMI_SendSingleChar
    hmi_driver.o(i.BatchSetSliderValue) refers to usart.o(i.HMI_SendSingleChar) for HMI_SendSingleChar
    hmi_driver.o(i.BatchSetText) refers to usart.o(i.HMI_SendSingleChar) for HMI_SendSingleChar
    hmi_driver.o(i.BatchSetText) refers to hmi_driver.o(i.GetStringLen) for GetStringLen
    hmi_driver.o(i.BatchSetText) refers to hmi_driver.o(i.SendStrings) for SendStrings
    hmi_driver.o(i.BeginUpdateHMI) refers to hmi_driver.o(i.SendFiledData) for SendFiledData
    hmi_driver.o(i.CalibrateTouchPane) refers to usart.o(i.HMI_SendSingleChar) for HMI_SendSingleChar
    hmi_driver.o(i.ClearLayer) refers to usart.o(i.HMI_SendSingleChar) for HMI_SendSingleChar
    hmi_driver.o(i.ColorPicker) refers to usart.o(i.HMI_SendSingleChar) for HMI_SendSingleChar
    hmi_driver.o(i.CopyLayer) refers to usart.o(i.HMI_SendSingleChar) for HMI_SendSingleChar
    hmi_driver.o(i.DisArea_Image) refers to usart.o(i.HMI_SendSingleChar) for HMI_SendSingleChar
    hmi_driver.o(i.DisCursor) refers to usart.o(i.HMI_SendSingleChar) for HMI_SendSingleChar
    hmi_driver.o(i.DisCut_Image) refers to usart.o(i.HMI_SendSingleChar) for HMI_SendSingleChar
    hmi_driver.o(i.DisFlashImage) refers to usart.o(i.HMI_SendSingleChar) for HMI_SendSingleChar
    hmi_driver.o(i.DisFull_Image) refers to usart.o(i.HMI_SendSingleChar) for HMI_SendSingleChar
    hmi_driver.o(i.DisText) refers to usart.o(i.HMI_SendSingleChar) for HMI_SendSingleChar
    hmi_driver.o(i.DisText) refers to hmi_driver.o(i.SendStrings) for SendStrings
    hmi_driver.o(i.DisplyLayer) refers to usart.o(i.HMI_SendSingleChar) for HMI_SendSingleChar
    hmi_driver.o(i.EndUpdateHMI) refers to hmi_driver.o(i.SendFiledData) for SendFiledData
    hmi_driver.o(i.GUI_Arc) refers to usart.o(i.HMI_SendSingleChar) for HMI_SendSingleChar
    hmi_driver.o(i.GUI_AreaInycolor) refers to usart.o(i.HMI_SendSingleChar) for HMI_SendSingleChar
    hmi_driver.o(i.GUI_BcolorConDots) refers to usart.o(i.HMI_SendSingleChar) for HMI_SendSingleChar
    hmi_driver.o(i.GUI_BcolorConDots) refers to hmi_driver.o(i.SendNU16) for SendNU16
    hmi_driver.o(i.GUI_BcolorConOffsetDots) refers to usart.o(i.HMI_SendSingleChar) for HMI_SendSingleChar
    hmi_driver.o(i.GUI_BcolorConOffsetDots) refers to hmi_driver.o(i.SendNU16) for SendNU16
    hmi_driver.o(i.GUI_Circle) refers to usart.o(i.HMI_SendSingleChar) for HMI_SendSingleChar
    hmi_driver.o(i.GUI_CircleFill) refers to usart.o(i.HMI_SendSingleChar) for HMI_SendSingleChar
    hmi_driver.o(i.GUI_CleanScreen) refers to usart.o(i.HMI_SendSingleChar) for HMI_SendSingleChar
    hmi_driver.o(i.GUI_ConDots) refers to usart.o(i.HMI_SendSingleChar) for HMI_SendSingleChar
    hmi_driver.o(i.GUI_ConDots) refers to hmi_driver.o(i.SendNU16) for SendNU16
    hmi_driver.o(i.GUI_ConSpaceDots) refers to usart.o(i.HMI_SendSingleChar) for HMI_SendSingleChar
    hmi_driver.o(i.GUI_ConSpaceDots) refers to hmi_driver.o(i.SendNU16) for SendNU16
    hmi_driver.o(i.GUI_DispRTC) refers to usart.o(i.HMI_SendSingleChar) for HMI_SendSingleChar
    hmi_driver.o(i.GUI_Dot) refers to usart.o(i.HMI_SendSingleChar) for HMI_SendSingleChar
    hmi_driver.o(i.GUI_Ellipse) refers to usart.o(i.HMI_SendSingleChar) for HMI_SendSingleChar
    hmi_driver.o(i.GUI_EllipseFill) refers to usart.o(i.HMI_SendSingleChar) for HMI_SendSingleChar
    hmi_driver.o(i.GUI_FcolorConDots) refers to usart.o(i.HMI_SendSingleChar) for HMI_SendSingleChar
    hmi_driver.o(i.GUI_FcolorConDots) refers to hmi_driver.o(i.SendNU16) for SendNU16
    hmi_driver.o(i.GUI_FcolorConOffsetDots) refers to usart.o(i.HMI_SendSingleChar) for HMI_SendSingleChar
    hmi_driver.o(i.GUI_FcolorConOffsetDots) refers to hmi_driver.o(i.SendNU16) for SendNU16
    hmi_driver.o(i.GUI_Line) refers to usart.o(i.HMI_SendSingleChar) for HMI_SendSingleChar
    hmi_driver.o(i.GUI_Rectangle) refers to usart.o(i.HMI_SendSingleChar) for HMI_SendSingleChar
    hmi_driver.o(i.GUI_RectangleFill) refers to usart.o(i.HMI_SendSingleChar) for HMI_SendSingleChar
    hmi_driver.o(i.GetControlValue) refers to usart.o(i.HMI_SendSingleChar) for HMI_SendSingleChar
    hmi_driver.o(i.GetScreen) refers to usart.o(i.HMI_SendSingleChar) for HMI_SendSingleChar
    hmi_driver.o(i.GraphChannelAdd) refers to usart.o(i.HMI_SendSingleChar) for HMI_SendSingleChar
    hmi_driver.o(i.GraphChannelDataAdd) refers to usart.o(i.HMI_SendSingleChar) for HMI_SendSingleChar
    hmi_driver.o(i.GraphChannelDataAdd) refers to hmi_driver.o(i.SendNU8) for SendNU8
    hmi_driver.o(i.GraphChannelDataClear) refers to usart.o(i.HMI_SendSingleChar) for HMI_SendSingleChar
    hmi_driver.o(i.GraphChannelDel) refers to usart.o(i.HMI_SendSingleChar) for HMI_SendSingleChar
    hmi_driver.o(i.GraphSetViewport) refers to usart.o(i.HMI_SendSingleChar) for HMI_SendSingleChar
    hmi_driver.o(i.LockDeviceConfig) refers to usart.o(i.HMI_SendSingleChar) for HMI_SendSingleChar
    hmi_driver.o(i.PauseTimer) refers to usart.o(i.HMI_SendSingleChar) for HMI_SendSingleChar
    hmi_driver.o(i.RSRT) refers to delay.o(i.delay_ms) for delay_ms
    hmi_driver.o(i.RSRT) refers to usart.o(.data) for cmd_Updata_Mark
    hmi_driver.o(i.ReadImgIdx) refers to usart.o(i.HMI_SendSingleChar) for HMI_SendSingleChar
    hmi_driver.o(i.ReadUserFlash) refers to usart.o(i.HMI_SendSingleChar) for HMI_SendSingleChar
    hmi_driver.o(i.SeTimer) refers to usart.o(i.HMI_SendSingleChar) for HMI_SendSingleChar
    hmi_driver.o(i.SendFiledData) refers to hmi_driver.o(i.SendNU8) for SendNU8
    hmi_driver.o(i.SendFiledData) refers to hmi_driver.o(i.RSRT) for RSRT
    hmi_driver.o(i.SendFiledData) refers to usart.o(.data) for cmd_Updata_Mark
    hmi_driver.o(i.SendNU16) refers to usart.o(i.HMI_SendSingleChar) for HMI_SendSingleChar
    hmi_driver.o(i.SendNU8) refers to usart.o(i.HMI_SendSingleChar) for HMI_SendSingleChar
    hmi_driver.o(i.SendStrings) refers to usart.o(i.HMI_SendSingleChar) for HMI_SendSingleChar
    hmi_driver.o(i.SendUint16) refers to usart.o(i.HMI_SendSingleChar) for HMI_SendSingleChar
    hmi_driver.o(i.SendUint16) refers to hmi_driver.o(i.RSRT) for RSRT
    hmi_driver.o(i.SetBackLight) refers to usart.o(i.HMI_SendSingleChar) for HMI_SendSingleChar
    hmi_driver.o(i.SetBcolor) refers to usart.o(i.HMI_SendSingleChar) for HMI_SendSingleChar
    hmi_driver.o(i.SetButtonValue) refers to usart.o(i.HMI_SendSingleChar) for HMI_SendSingleChar
    hmi_driver.o(i.SetBuzzer) refers to usart.o(i.HMI_SendSingleChar) for HMI_SendSingleChar
    hmi_driver.o(i.SetCommBps) refers to usart.o(i.HMI_SendSingleChar) for HMI_SendSingleChar
    hmi_driver.o(i.SetControlBackColor) refers to usart.o(i.HMI_SendSingleChar) for HMI_SendSingleChar
    hmi_driver.o(i.SetControlEnable) refers to usart.o(i.HMI_SendSingleChar) for HMI_SendSingleChar
    hmi_driver.o(i.SetControlFocus) refers to usart.o(i.HMI_SendSingleChar) for HMI_SendSingleChar
    hmi_driver.o(i.SetControlForeColor) refers to usart.o(i.HMI_SendSingleChar) for HMI_SendSingleChar
    hmi_driver.o(i.SetControlVisiable) refers to usart.o(i.HMI_SendSingleChar) for HMI_SendSingleChar
    hmi_driver.o(i.SetFcolor) refers to usart.o(i.HMI_SendSingleChar) for HMI_SendSingleChar
    hmi_driver.o(i.SetFilterColor) refers to usart.o(i.HMI_SendSingleChar) for HMI_SendSingleChar
    hmi_driver.o(i.SetFont_Region) refers to usart.o(i.HMI_SendSingleChar) for HMI_SendSingleChar
    hmi_driver.o(i.SetHandShake) refers to usart.o(i.HMI_SendSingleChar) for HMI_SendSingleChar
    hmi_driver.o(i.SetMeterValue) refers to usart.o(i.HMI_SendSingleChar) for HMI_SendSingleChar
    hmi_driver.o(i.SetPowerSaving) refers to usart.o(i.HMI_SendSingleChar) for HMI_SendSingleChar
    hmi_driver.o(i.SetProgressValue) refers to usart.o(i.HMI_SendSingleChar) for HMI_SendSingleChar
    hmi_driver.o(i.SetScreen) refers to usart.o(i.HMI_SendSingleChar) for HMI_SendSingleChar
    hmi_driver.o(i.SetScreenUpdateEnable) refers to usart.o(i.HMI_SendSingleChar) for HMI_SendSingleChar
    hmi_driver.o(i.SetSelectorValue) refers to usart.o(i.HMI_SendSingleChar) for HMI_SendSingleChar
    hmi_driver.o(i.SetSliderValue) refers to usart.o(i.HMI_SendSingleChar) for HMI_SendSingleChar
    hmi_driver.o(i.SetTextSpace) refers to usart.o(i.HMI_SendSingleChar) for HMI_SendSingleChar
    hmi_driver.o(i.SetTextValue) refers to usart.o(i.HMI_SendSingleChar) for HMI_SendSingleChar
    hmi_driver.o(i.SetTextValue) refers to hmi_driver.o(i.SendStrings) for SendStrings
    hmi_driver.o(i.SetTouchPaneOption) refers to usart.o(i.HMI_SendSingleChar) for HMI_SendSingleChar
    hmi_driver.o(i.ShowKeyboard) refers to usart.o(i.HMI_SendSingleChar) for HMI_SendSingleChar
    hmi_driver.o(i.ShowPopupMenu) refers to usart.o(i.HMI_SendSingleChar) for HMI_SendSingleChar
    hmi_driver.o(i.StartDownLoad) refers to hmi_driver.o(i.SendFiledData) for SendFiledData
    hmi_driver.o(i.StartTimer) refers to usart.o(i.HMI_SendSingleChar) for HMI_SendSingleChar
    hmi_driver.o(i.StopTimer) refers to usart.o(i.HMI_SendSingleChar) for HMI_SendSingleChar
    hmi_driver.o(i.TestTouchPane) refers to usart.o(i.HMI_SendSingleChar) for HMI_SendSingleChar
    hmi_driver.o(i.UnlockDeviceConfig) refers to usart.o(i.HMI_SendSingleChar) for HMI_SendSingleChar
    hmi_driver.o(i.WriteLayer) refers to usart.o(i.HMI_SendSingleChar) for HMI_SendSingleChar
    hmi_driver.o(i.WriteUserFlash) refers to usart.o(i.HMI_SendSingleChar) for HMI_SendSingleChar
    hmi_driver.o(i.WriteUserFlash) refers to hmi_driver.o(i.SendNU8) for SendNU8
    usart.o(i.HMI_SendSingleChar) refers to stm32f4xx_usart.o(i.USART_SendData) for USART_SendData
    usart.o(i.HMI_SendSingleChar) refers to stm32f4xx_usart.o(i.USART_GetFlagStatus) for USART_GetFlagStatus
    usart.o(i.HMI_USART_Init) refers to stm32f4xx_rcc.o(i.RCC_AHB1PeriphClockCmd) for RCC_AHB1PeriphClockCmd
    usart.o(i.HMI_USART_Init) refers to stm32f4xx_rcc.o(i.RCC_APB2PeriphClockCmd) for RCC_APB2PeriphClockCmd
    usart.o(i.HMI_USART_Init) refers to stm32f4xx_usart.o(i.USART_DeInit) for USART_DeInit
    usart.o(i.HMI_USART_Init) refers to stm32f4xx_gpio.o(i.GPIO_PinAFConfig) for GPIO_PinAFConfig
    usart.o(i.HMI_USART_Init) refers to stm32f4xx_gpio.o(i.GPIO_Init) for GPIO_Init
    usart.o(i.HMI_USART_Init) refers to stm32f4xx_usart.o(i.USART_Init) for USART_Init
    usart.o(i.HMI_USART_Init) refers to stm32f4xx_usart.o(i.USART_Cmd) for USART_Cmd
    usart.o(i.HMI_USART_Init) refers to stm32f4xx_usart.o(i.USART_ITConfig) for USART_ITConfig
    usart.o(i.HMI_USART_Init) refers to misc.o(i.NVIC_Init) for NVIC_Init
    usart.o(i.USART1_IRQHandler) refers to stm32f4xx_usart.o(i.USART_GetFlagStatus) for USART_GetFlagStatus
    usart.o(i.USART1_IRQHandler) refers to stm32f4xx_usart.o(i.USART_ClearFlag) for USART_ClearFlag
    usart.o(i.USART1_IRQHandler) refers to stm32f4xx_usart.o(i.USART_GetITStatus) for USART_GetITStatus
    usart.o(i.USART1_IRQHandler) refers to stm32f4xx_usart.o(i.USART_ReceiveData) for USART_ReceiveData
    usart.o(i.USART1_IRQHandler) refers to cmd_queue.o(i.queue_push) for queue_push
    usart.o(i.USART1_IRQHandler) refers to stm32f4xx_usart.o(i.USART_ClearITPendingBit) for USART_ClearITPendingBit
    diskio.o(i.disk_initialize) refers to usbh_usr.o(i.USBH_UDISK_Status) for USBH_UDISK_Status
    diskio.o(i.disk_ioctl) refers to diskio.o(.data) for FLASH_SECTOR_COUNT
    diskio.o(i.disk_ioctl) refers to usbh_msc_scsi.o(.bss) for USBH_MSC_Param
    diskio.o(i.disk_read) refers to usbh_usr.o(i.USBH_UDISK_Read) for USBH_UDISK_Read
    diskio.o(i.disk_write) refers to usbh_usr.o(i.USBH_UDISK_Write) for USBH_UDISK_Write
    diskio.o(i.ff_memalloc) refers to malloc.o(i.mymalloc) for mymalloc
    diskio.o(i.ff_memfree) refers to malloc.o(i.myfree) for myfree
    ff.o(i.check_fs) refers to ff.o(i.move_window) for move_window
    ff.o(i.cmp_lfn) refers to cc936.o(i.ff_wtoupper) for ff_wtoupper
    ff.o(i.cmp_lfn) refers to ff.o(.constdata) for LfnOfs
    ff.o(i.create_chain) refers to ff.o(i.get_fat) for get_fat
    ff.o(i.create_chain) refers to ff.o(i.put_fat) for put_fat
    ff.o(i.create_name) refers to cc936.o(i.ff_convert) for ff_convert
    ff.o(i.create_name) refers to ff.o(i.chk_chr) for chk_chr
    ff.o(i.create_name) refers to ff.o(i.mem_set) for mem_set
    ff.o(i.create_name) refers to cc936.o(i.ff_wtoupper) for ff_wtoupper
    ff.o(i.dir_alloc) refers to ff.o(i.dir_sdi) for dir_sdi
    ff.o(i.dir_alloc) refers to ff.o(i.move_window) for move_window
    ff.o(i.dir_alloc) refers to ff.o(i.dir_next) for dir_next
    ff.o(i.dir_find) refers to ff.o(i.dir_sdi) for dir_sdi
    ff.o(i.dir_find) refers to ff.o(i.move_window) for move_window
    ff.o(i.dir_find) refers to ff.o(i.cmp_lfn) for cmp_lfn
    ff.o(i.dir_find) refers to ff.o(i.sum_sfn) for sum_sfn
    ff.o(i.dir_find) refers to ff.o(i.mem_cmp) for mem_cmp
    ff.o(i.dir_find) refers to ff.o(i.dir_next) for dir_next
    ff.o(i.dir_next) refers to ff.o(i.get_fat) for get_fat
    ff.o(i.dir_next) refers to ff.o(i.create_chain) for create_chain
    ff.o(i.dir_next) refers to ff.o(i.sync_window) for sync_window
    ff.o(i.dir_next) refers to ff.o(i.mem_set) for mem_set
    ff.o(i.dir_next) refers to ff.o(i.clust2sect) for clust2sect
    ff.o(i.dir_read) refers to ff.o(i.move_window) for move_window
    ff.o(i.dir_read) refers to ff.o(i.pick_lfn) for pick_lfn
    ff.o(i.dir_read) refers to ff.o(i.sum_sfn) for sum_sfn
    ff.o(i.dir_read) refers to ff.o(i.dir_next) for dir_next
    ff.o(i.dir_register) refers to ff.o(i.mem_cpy) for mem_cpy
    ff.o(i.dir_register) refers to ff.o(i.gen_numname) for gen_numname
    ff.o(i.dir_register) refers to ff.o(i.dir_find) for dir_find
    ff.o(i.dir_register) refers to ff.o(i.dir_alloc) for dir_alloc
    ff.o(i.dir_register) refers to ff.o(i.dir_sdi) for dir_sdi
    ff.o(i.dir_register) refers to ff.o(i.sum_sfn) for sum_sfn
    ff.o(i.dir_register) refers to ff.o(i.move_window) for move_window
    ff.o(i.dir_register) refers to ff.o(i.fit_lfn) for fit_lfn
    ff.o(i.dir_register) refers to ff.o(i.dir_next) for dir_next
    ff.o(i.dir_register) refers to ff.o(i.mem_set) for mem_set
    ff.o(i.dir_remove) refers to ff.o(i.dir_sdi) for dir_sdi
    ff.o(i.dir_remove) refers to ff.o(i.move_window) for move_window
    ff.o(i.dir_remove) refers to ff.o(i.mem_set) for mem_set
    ff.o(i.dir_remove) refers to ff.o(i.dir_next) for dir_next
    ff.o(i.dir_sdi) refers to ff.o(i.get_fat) for get_fat
    ff.o(i.dir_sdi) refers to ff.o(i.clust2sect) for clust2sect
    ff.o(i.f_chmod) refers to ff.o(i.find_volume) for find_volume
    ff.o(i.f_chmod) refers to diskio.o(i.ff_memalloc) for ff_memalloc
    ff.o(i.f_chmod) refers to ff.o(i.follow_path) for follow_path
    ff.o(i.f_chmod) refers to diskio.o(i.ff_memfree) for ff_memfree
    ff.o(i.f_chmod) refers to ff.o(i.sync_fs) for sync_fs
    ff.o(i.f_close) refers to ff.o(i.f_sync) for f_sync
    ff.o(i.f_close) refers to ff.o(i.validate) for validate
    ff.o(i.f_closedir) refers to ff.o(i.validate) for validate
    ff.o(i.f_copy) refers to ff.o(i.f_open) for f_open
    ff.o(i.f_copy) refers to ff.o(i.f_read) for f_read
    ff.o(i.f_copy) refers to ff.o(i.f_write) for f_write
    ff.o(i.f_copy) refers to ff.o(i.f_close) for f_close
    ff.o(i.f_getfree) refers to ff.o(i.find_volume) for find_volume
    ff.o(i.f_getfree) refers to ff.o(i.get_fat) for get_fat
    ff.o(i.f_getfree) refers to ff.o(i.move_window) for move_window
    ff.o(i.f_getlabel) refers to ff.o(i.find_volume) for find_volume
    ff.o(i.f_getlabel) refers to ff.o(i.dir_sdi) for dir_sdi
    ff.o(i.f_getlabel) refers to ff.o(i.dir_read) for dir_read
    ff.o(i.f_getlabel) refers to ff.o(i.mem_cpy) for mem_cpy
    ff.o(i.f_getlabel) refers to ff.o(i.move_window) for move_window
    ff.o(i.f_gets) refers to ff.o(i.f_read) for f_read
    ff.o(i.f_lseek) refers to ff.o(i.validate) for validate
    ff.o(i.f_lseek) refers to ff.o(i.get_fat) for get_fat
    ff.o(i.f_lseek) refers to ff.o(i.clmt_clust) for clmt_clust
    ff.o(i.f_lseek) refers to ff.o(i.clust2sect) for clust2sect
    ff.o(i.f_lseek) refers to diskio.o(i.disk_write) for disk_write
    ff.o(i.f_lseek) refers to diskio.o(i.disk_read) for disk_read
    ff.o(i.f_lseek) refers to ff.o(i.create_chain) for create_chain
    ff.o(i.f_mkdir) refers to diskio.o(i.get_fattime) for get_fattime
    ff.o(i.f_mkdir) refers to ff.o(i.find_volume) for find_volume
    ff.o(i.f_mkdir) refers to diskio.o(i.ff_memalloc) for ff_memalloc
    ff.o(i.f_mkdir) refers to ff.o(i.follow_path) for follow_path
    ff.o(i.f_mkdir) refers to ff.o(i.create_chain) for create_chain
    ff.o(i.f_mkdir) refers to ff.o(i.sync_window) for sync_window
    ff.o(i.f_mkdir) refers to ff.o(i.clust2sect) for clust2sect
    ff.o(i.f_mkdir) refers to ff.o(i.mem_set) for mem_set
    ff.o(i.f_mkdir) refers to ff.o(i.st_clust) for st_clust
    ff.o(i.f_mkdir) refers to ff.o(i.mem_cpy) for mem_cpy
    ff.o(i.f_mkdir) refers to ff.o(i.dir_register) for dir_register
    ff.o(i.f_mkdir) refers to ff.o(i.remove_chain) for remove_chain
    ff.o(i.f_mkdir) refers to ff.o(i.sync_fs) for sync_fs
    ff.o(i.f_mkdir) refers to diskio.o(i.ff_memfree) for ff_memfree
    ff.o(i.f_mkfs) refers to ff.o(i.get_ldnumber) for get_ldnumber
    ff.o(i.f_mkfs) refers to diskio.o(i.disk_initialize) for disk_initialize
    ff.o(i.f_mkfs) refers to diskio.o(i.disk_ioctl) for disk_ioctl
    ff.o(i.f_mkfs) refers to ff.o(i.mem_set) for mem_set
    ff.o(i.f_mkfs) refers to diskio.o(i.disk_write) for disk_write
    ff.o(i.f_mkfs) refers to ff.o(i.mem_cpy) for mem_cpy
    ff.o(i.f_mkfs) refers to diskio.o(i.get_fattime) for get_fattime
    ff.o(i.f_mkfs) refers to ff.o(.bss) for FatFs
    ff.o(i.f_mkfs) refers to ff.o(.constdata) for vst
    ff.o(i.f_mount) refers to ff.o(i.get_ldnumber) for get_ldnumber
    ff.o(i.f_mount) refers to ff.o(i.find_volume) for find_volume
    ff.o(i.f_mount) refers to ff.o(.bss) for FatFs
    ff.o(i.f_open) refers to ff.o(i.find_volume) for find_volume
    ff.o(i.f_open) refers to diskio.o(i.ff_memalloc) for ff_memalloc
    ff.o(i.f_open) refers to ff.o(i.follow_path) for follow_path
    ff.o(i.f_open) refers to ff.o(i.dir_register) for dir_register
    ff.o(i.f_open) refers to diskio.o(i.get_fattime) for get_fattime
    ff.o(i.f_open) refers to ff.o(i.ld_clust) for ld_clust
    ff.o(i.f_open) refers to ff.o(i.st_clust) for st_clust
    ff.o(i.f_open) refers to ff.o(i.remove_chain) for remove_chain
    ff.o(i.f_open) refers to ff.o(i.move_window) for move_window
    ff.o(i.f_open) refers to diskio.o(i.ff_memfree) for ff_memfree
    ff.o(i.f_opendir) refers to ff.o(i.find_volume) for find_volume
    ff.o(i.f_opendir) refers to diskio.o(i.ff_memalloc) for ff_memalloc
    ff.o(i.f_opendir) refers to ff.o(i.follow_path) for follow_path
    ff.o(i.f_opendir) refers to diskio.o(i.ff_memfree) for ff_memfree
    ff.o(i.f_opendir) refers to ff.o(i.ld_clust) for ld_clust
    ff.o(i.f_opendir) refers to ff.o(i.dir_sdi) for dir_sdi
    ff.o(i.f_printf) refers to ff.o(i.putc_bfd) for putc_bfd
    ff.o(i.f_printf) refers to ff.o(i.f_write) for f_write
    ff.o(i.f_putc) refers to ff.o(i.putc_bfd) for putc_bfd
    ff.o(i.f_putc) refers to ff.o(i.f_write) for f_write
    ff.o(i.f_puts) refers to ff.o(i.putc_bfd) for putc_bfd
    ff.o(i.f_puts) refers to ff.o(i.f_write) for f_write
    ff.o(i.f_read) refers to ff.o(i.validate) for validate
    ff.o(i.f_read) refers to ff.o(i.clmt_clust) for clmt_clust
    ff.o(i.f_read) refers to ff.o(i.get_fat) for get_fat
    ff.o(i.f_read) refers to ff.o(i.clust2sect) for clust2sect
    ff.o(i.f_read) refers to diskio.o(i.disk_read) for disk_read
    ff.o(i.f_read) refers to ff.o(i.mem_cpy) for mem_cpy
    ff.o(i.f_read) refers to diskio.o(i.disk_write) for disk_write
    ff.o(i.f_readdir) refers to ff.o(i.validate) for validate
    ff.o(i.f_readdir) refers to ff.o(i.dir_sdi) for dir_sdi
    ff.o(i.f_readdir) refers to diskio.o(i.ff_memalloc) for ff_memalloc
    ff.o(i.f_readdir) refers to ff.o(i.dir_read) for dir_read
    ff.o(i.f_readdir) refers to ff.o(i.get_fileinfo) for get_fileinfo
    ff.o(i.f_readdir) refers to ff.o(i.dir_next) for dir_next
    ff.o(i.f_readdir) refers to diskio.o(i.ff_memfree) for ff_memfree
    ff.o(i.f_rename) refers to ff.o(i.find_volume) for find_volume
    ff.o(i.f_rename) refers to diskio.o(i.ff_memalloc) for ff_memalloc
    ff.o(i.f_rename) refers to ff.o(i.follow_path) for follow_path
    ff.o(i.f_rename) refers to ff.o(i.mem_cpy) for mem_cpy
    ff.o(i.f_rename) refers to ff.o(i.get_ldnumber) for get_ldnumber
    ff.o(i.f_rename) refers to ff.o(i.dir_register) for dir_register
    ff.o(i.f_rename) refers to ff.o(i.ld_clust) for ld_clust
    ff.o(i.f_rename) refers to ff.o(i.clust2sect) for clust2sect
    ff.o(i.f_rename) refers to ff.o(i.move_window) for move_window
    ff.o(i.f_rename) refers to ff.o(i.st_clust) for st_clust
    ff.o(i.f_rename) refers to ff.o(i.dir_remove) for dir_remove
    ff.o(i.f_rename) refers to ff.o(i.sync_fs) for sync_fs
    ff.o(i.f_rename) refers to diskio.o(i.ff_memfree) for ff_memfree
    ff.o(i.f_setlabel) refers to ff.o(i.find_volume) for find_volume
    ff.o(i.f_setlabel) refers to cc936.o(i.ff_convert) for ff_convert
    ff.o(i.f_setlabel) refers to cc936.o(i.ff_wtoupper) for ff_wtoupper
    ff.o(i.f_setlabel) refers to ff.o(i.chk_chr) for chk_chr
    ff.o(i.f_setlabel) refers to ff.o(i.dir_sdi) for dir_sdi
    ff.o(i.f_setlabel) refers to ff.o(i.dir_read) for dir_read
    ff.o(i.f_setlabel) refers to ff.o(i.mem_cpy) for mem_cpy
    ff.o(i.f_setlabel) refers to diskio.o(i.get_fattime) for get_fattime
    ff.o(i.f_setlabel) refers to ff.o(i.sync_fs) for sync_fs
    ff.o(i.f_setlabel) refers to ff.o(i.dir_alloc) for dir_alloc
    ff.o(i.f_setlabel) refers to ff.o(i.mem_set) for mem_set
    ff.o(i.f_stat) refers to ff.o(i.find_volume) for find_volume
    ff.o(i.f_stat) refers to diskio.o(i.ff_memalloc) for ff_memalloc
    ff.o(i.f_stat) refers to ff.o(i.follow_path) for follow_path
    ff.o(i.f_stat) refers to ff.o(i.get_fileinfo) for get_fileinfo
    ff.o(i.f_stat) refers to diskio.o(i.ff_memfree) for ff_memfree
    ff.o(i.f_sync) refers to ff.o(i.validate) for validate
    ff.o(i.f_sync) refers to diskio.o(i.disk_write) for disk_write
    ff.o(i.f_sync) refers to ff.o(i.move_window) for move_window
    ff.o(i.f_sync) refers to ff.o(i.st_clust) for st_clust
    ff.o(i.f_sync) refers to diskio.o(i.get_fattime) for get_fattime
    ff.o(i.f_sync) refers to ff.o(i.sync_fs) for sync_fs
    ff.o(i.f_truncate) refers to ff.o(i.validate) for validate
    ff.o(i.f_truncate) refers to ff.o(i.remove_chain) for remove_chain
    ff.o(i.f_truncate) refers to ff.o(i.get_fat) for get_fat
    ff.o(i.f_truncate) refers to ff.o(i.put_fat) for put_fat
    ff.o(i.f_truncate) refers to diskio.o(i.disk_write) for disk_write
    ff.o(i.f_unlink) refers to ff.o(i.find_volume) for find_volume
    ff.o(i.f_unlink) refers to diskio.o(i.ff_memalloc) for ff_memalloc
    ff.o(i.f_unlink) refers to ff.o(i.follow_path) for follow_path
    ff.o(i.f_unlink) refers to ff.o(i.ld_clust) for ld_clust
    ff.o(i.f_unlink) refers to ff.o(i.mem_cpy) for mem_cpy
    ff.o(i.f_unlink) refers to ff.o(i.dir_sdi) for dir_sdi
    ff.o(i.f_unlink) refers to ff.o(i.dir_read) for dir_read
    ff.o(i.f_unlink) refers to ff.o(i.dir_remove) for dir_remove
    ff.o(i.f_unlink) refers to ff.o(i.remove_chain) for remove_chain
    ff.o(i.f_unlink) refers to ff.o(i.sync_fs) for sync_fs
    ff.o(i.f_unlink) refers to diskio.o(i.ff_memfree) for ff_memfree
    ff.o(i.f_utime) refers to ff.o(i.find_volume) for find_volume
    ff.o(i.f_utime) refers to diskio.o(i.ff_memalloc) for ff_memalloc
    ff.o(i.f_utime) refers to ff.o(i.follow_path) for follow_path
    ff.o(i.f_utime) refers to diskio.o(i.ff_memfree) for ff_memfree
    ff.o(i.f_utime) refers to ff.o(i.sync_fs) for sync_fs
    ff.o(i.f_write) refers to ff.o(i.validate) for validate
    ff.o(i.f_write) refers to ff.o(i.create_chain) for create_chain
    ff.o(i.f_write) refers to ff.o(i.clmt_clust) for clmt_clust
    ff.o(i.f_write) refers to diskio.o(i.disk_write) for disk_write
    ff.o(i.f_write) refers to ff.o(i.clust2sect) for clust2sect
    ff.o(i.f_write) refers to ff.o(i.mem_cpy) for mem_cpy
    ff.o(i.f_write) refers to diskio.o(i.disk_read) for disk_read
    ff.o(i.find_volume) refers to ff.o(i.get_ldnumber) for get_ldnumber
    ff.o(i.find_volume) refers to diskio.o(i.disk_status) for disk_status
    ff.o(i.find_volume) refers to diskio.o(i.disk_initialize) for disk_initialize
    ff.o(i.find_volume) refers to diskio.o(i.disk_ioctl) for disk_ioctl
    ff.o(i.find_volume) refers to ff.o(i.check_fs) for check_fs
    ff.o(i.find_volume) refers to ff.o(i.move_window) for move_window
    ff.o(i.find_volume) refers to ff.o(.bss) for FatFs
    ff.o(i.find_volume) refers to ff.o(.data) for Fsid
    ff.o(i.fit_lfn) refers to ff.o(.constdata) for LfnOfs
    ff.o(i.follow_path) refers to ff.o(i.dir_sdi) for dir_sdi
    ff.o(i.follow_path) refers to ff.o(i.create_name) for create_name
    ff.o(i.follow_path) refers to ff.o(i.dir_find) for dir_find
    ff.o(i.follow_path) refers to ff.o(i.ld_clust) for ld_clust
    ff.o(i.gen_numname) refers to ff.o(i.mem_cpy) for mem_cpy
    ff.o(i.get_fat) refers to ff.o(i.move_window) for move_window
    ff.o(i.get_fileinfo) refers to cc936.o(i.ff_convert) for ff_convert
    ff.o(i.mf_copy) refers to malloc.o(i.mymalloc) for mymalloc
    ff.o(i.mf_copy) refers to ff.o(i.f_open) for f_open
    ff.o(i.mf_copy) refers to ff.o(i.f_read) for f_read
    ff.o(i.mf_copy) refers to ff.o(i.f_write) for f_write
    ff.o(i.mf_copy) refers to ff.o(i.f_close) for f_close
    ff.o(i.mf_copy) refers to malloc.o(i.myfree) for myfree
    ff.o(i.move_window) refers to ff.o(i.sync_window) for sync_window
    ff.o(i.move_window) refers to diskio.o(i.disk_read) for disk_read
    ff.o(i.pick_lfn) refers to ff.o(.constdata) for LfnOfs
    ff.o(i.put_fat) refers to ff.o(i.move_window) for move_window
    ff.o(i.putc_bfd) refers to ff.o(i.f_write) for f_write
    ff.o(i.remove_chain) refers to ff.o(i.get_fat) for get_fat
    ff.o(i.remove_chain) refers to ff.o(i.put_fat) for put_fat
    ff.o(i.sync_fs) refers to ff.o(i.sync_window) for sync_window
    ff.o(i.sync_fs) refers to ff.o(i.mem_set) for mem_set
    ff.o(i.sync_fs) refers to diskio.o(i.disk_write) for disk_write
    ff.o(i.sync_fs) refers to diskio.o(i.disk_ioctl) for disk_ioctl
    ff.o(i.sync_window) refers to diskio.o(i.disk_write) for disk_write
    ff.o(i.validate) refers to diskio.o(i.disk_status) for disk_status
    cc936.o(i.ff_convert) refers to cc936.o(.constdata) for oem2uni
    cc936.o(i.ff_wtoupper) refers to cc936.o(.constdata) for tbl_lower
    exfuns.o(i.exf_getfree) refers to ff.o(i.f_getfree) for f_getfree
    exfuns.o(i.exfuns_init) refers to malloc.o(i.mymalloc) for mymalloc
    exfuns.o(i.exfuns_init) refers to exfuns.o(.bss) for fs
    exfuns.o(i.exfuns_init) refers to exfuns.o(.data) for file
    exfuns.o(i.f_typetell) refers to strcpy.o(.text) for strcpy
    exfuns.o(i.f_typetell) refers to exfuns.o(i.char_upper) for char_upper
    exfuns.o(i.f_typetell) refers to strcmp.o(.text) for strcmp
    exfuns.o(i.f_typetell) refers to exfuns.o(.constdata) for FILE_TYPE_TBL
    exfuns.o(.constdata) refers to exfuns.o(.conststring) for .conststring
    fattester.o(i.mf_close) refers to ff.o(i.f_close) for f_close
    fattester.o(i.mf_close) refers to exfuns.o(.data) for file
    fattester.o(i.mf_closedir) refers to ff.o(i.f_closedir) for f_closedir
    fattester.o(i.mf_closedir) refers to exfuns.o(.bss) for dir
    fattester.o(i.mf_fmkfs) refers to ff.o(i.f_mkfs) for f_mkfs
    fattester.o(i.mf_getlabel) refers to ff.o(i.f_getlabel) for f_getlabel
    fattester.o(i.mf_gets) refers to ff.o(i.f_gets) for f_gets
    fattester.o(i.mf_gets) refers to exfuns.o(.data) for file
    fattester.o(i.mf_lseek) refers to ff.o(i.f_lseek) for f_lseek
    fattester.o(i.mf_lseek) refers to exfuns.o(.data) for file
    fattester.o(i.mf_mkdir) refers to ff.o(i.f_mkdir) for f_mkdir
    fattester.o(i.mf_mount) refers to ff.o(i.f_mount) for f_mount
    fattester.o(i.mf_mount) refers to exfuns.o(.bss) for fs
    fattester.o(i.mf_open) refers to ff.o(i.f_open) for f_open
    fattester.o(i.mf_open) refers to exfuns.o(.data) for file
    fattester.o(i.mf_opendir) refers to ff.o(i.f_opendir) for f_opendir
    fattester.o(i.mf_opendir) refers to exfuns.o(.bss) for dir
    fattester.o(i.mf_putc) refers to ff.o(i.f_putc) for f_putc
    fattester.o(i.mf_putc) refers to exfuns.o(.data) for file
    fattester.o(i.mf_puts) refers to ff.o(i.f_puts) for f_puts
    fattester.o(i.mf_puts) refers to exfuns.o(.data) for file
    fattester.o(i.mf_read) refers to ff.o(i.f_read) for f_read
    fattester.o(i.mf_read) refers to exfuns.o(.data) for br
    fattester.o(i.mf_readdir) refers to malloc.o(i.mymalloc) for mymalloc
    fattester.o(i.mf_readdir) refers to ff.o(i.f_readdir) for f_readdir
    fattester.o(i.mf_readdir) refers to malloc.o(i.myfree) for myfree
    fattester.o(i.mf_readdir) refers to exfuns.o(.bss) for fileinfo
    fattester.o(i.mf_rename) refers to ff.o(i.f_rename) for f_rename
    fattester.o(i.mf_scan_files) refers to malloc.o(i.mymalloc) for mymalloc
    fattester.o(i.mf_scan_files) refers to ff.o(i.f_opendir) for f_opendir
    fattester.o(i.mf_scan_files) refers to ff.o(i.f_readdir) for f_readdir
    fattester.o(i.mf_scan_files) refers to malloc.o(i.myfree) for myfree
    fattester.o(i.mf_scan_files) refers to exfuns.o(.bss) for fileinfo
    fattester.o(i.mf_setlabel) refers to ff.o(i.f_setlabel) for f_setlabel
    fattester.o(i.mf_showfree) refers to ff.o(i.f_getfree) for f_getfree
    fattester.o(i.mf_size) refers to exfuns.o(.data) for file
    fattester.o(i.mf_tell) refers to exfuns.o(.data) for file
    fattester.o(i.mf_unlink) refers to ff.o(i.f_unlink) for f_unlink
    fattester.o(i.mf_write) refers to ff.o(i.f_write) for f_write
    fattester.o(i.mf_write) refers to exfuns.o(.data) for bw
    w25qxx.o(i.W25QXX_Erase_Chip) refers to w25qxx.o(i.W25QXX_Write_Enable) for W25QXX_Write_Enable
    w25qxx.o(i.W25QXX_Erase_Chip) refers to w25qxx.o(i.W25QXX_Wait_Busy) for W25QXX_Wait_Busy
    w25qxx.o(i.W25QXX_Erase_Chip) refers to stm32f4xx_gpio.o(i.GPIO_ResetBits) for GPIO_ResetBits
    w25qxx.o(i.W25QXX_Erase_Chip) refers to spi.o(i.SPI3_ReadWriteByte) for SPI3_ReadWriteByte
    w25qxx.o(i.W25QXX_Erase_Chip) refers to stm32f4xx_gpio.o(i.GPIO_SetBits) for GPIO_SetBits
    w25qxx.o(i.W25QXX_Erase_Sector) refers to w25qxx.o(i.W25QXX_Write_Enable) for W25QXX_Write_Enable
    w25qxx.o(i.W25QXX_Erase_Sector) refers to w25qxx.o(i.W25QXX_Wait_Busy) for W25QXX_Wait_Busy
    w25qxx.o(i.W25QXX_Erase_Sector) refers to stm32f4xx_gpio.o(i.GPIO_ResetBits) for GPIO_ResetBits
    w25qxx.o(i.W25QXX_Erase_Sector) refers to spi.o(i.SPI3_ReadWriteByte) for SPI3_ReadWriteByte
    w25qxx.o(i.W25QXX_Erase_Sector) refers to stm32f4xx_gpio.o(i.GPIO_SetBits) for GPIO_SetBits
    w25qxx.o(i.W25QXX_Init) refers to stm32f4xx_rcc.o(i.RCC_AHB1PeriphClockCmd) for RCC_AHB1PeriphClockCmd
    w25qxx.o(i.W25QXX_Init) refers to stm32f4xx_gpio.o(i.GPIO_Init) for GPIO_Init
    w25qxx.o(i.W25QXX_Init) refers to stm32f4xx_gpio.o(i.GPIO_SetBits) for GPIO_SetBits
    w25qxx.o(i.W25QXX_Init) refers to spi.o(i.SPI3_Init) for SPI3_Init
    w25qxx.o(i.W25QXX_Init) refers to spi.o(i.SPI3_SetSpeed) for SPI3_SetSpeed
    w25qxx.o(i.W25QXX_Init) refers to w25qxx.o(i.W25QXX_ReadID) for W25QXX_ReadID
    w25qxx.o(i.W25QXX_Init) refers to w25qxx.o(.data) for W25QXX_TYPE
    w25qxx.o(i.W25QXX_PowerDown) refers to stm32f4xx_gpio.o(i.GPIO_ResetBits) for GPIO_ResetBits
    w25qxx.o(i.W25QXX_PowerDown) refers to spi.o(i.SPI3_ReadWriteByte) for SPI3_ReadWriteByte
    w25qxx.o(i.W25QXX_PowerDown) refers to stm32f4xx_gpio.o(i.GPIO_SetBits) for GPIO_SetBits
    w25qxx.o(i.W25QXX_PowerDown) refers to delay.o(i.delay_us) for delay_us
    w25qxx.o(i.W25QXX_Read) refers to stm32f4xx_gpio.o(i.GPIO_ResetBits) for GPIO_ResetBits
    w25qxx.o(i.W25QXX_Read) refers to spi.o(i.SPI3_ReadWriteByte) for SPI3_ReadWriteByte
    w25qxx.o(i.W25QXX_Read) refers to stm32f4xx_gpio.o(i.GPIO_SetBits) for GPIO_SetBits
    w25qxx.o(i.W25QXX_ReadID) refers to stm32f4xx_gpio.o(i.GPIO_ResetBits) for GPIO_ResetBits
    w25qxx.o(i.W25QXX_ReadID) refers to spi.o(i.SPI3_ReadWriteByte) for SPI3_ReadWriteByte
    w25qxx.o(i.W25QXX_ReadID) refers to stm32f4xx_gpio.o(i.GPIO_SetBits) for GPIO_SetBits
    w25qxx.o(i.W25QXX_ReadSR) refers to stm32f4xx_gpio.o(i.GPIO_ResetBits) for GPIO_ResetBits
    w25qxx.o(i.W25QXX_ReadSR) refers to spi.o(i.SPI3_ReadWriteByte) for SPI3_ReadWriteByte
    w25qxx.o(i.W25QXX_ReadSR) refers to stm32f4xx_gpio.o(i.GPIO_SetBits) for GPIO_SetBits
    w25qxx.o(i.W25QXX_WAKEUP) refers to stm32f4xx_gpio.o(i.GPIO_ResetBits) for GPIO_ResetBits
    w25qxx.o(i.W25QXX_WAKEUP) refers to spi.o(i.SPI3_ReadWriteByte) for SPI3_ReadWriteByte
    w25qxx.o(i.W25QXX_WAKEUP) refers to stm32f4xx_gpio.o(i.GPIO_SetBits) for GPIO_SetBits
    w25qxx.o(i.W25QXX_WAKEUP) refers to delay.o(i.delay_us) for delay_us
    w25qxx.o(i.W25QXX_Wait_Busy) refers to w25qxx.o(i.W25QXX_ReadSR) for W25QXX_ReadSR
    w25qxx.o(i.W25QXX_Write) refers to w25qxx.o(i.W25QXX_Read) for W25QXX_Read
    w25qxx.o(i.W25QXX_Write) refers to w25qxx.o(i.W25QXX_Erase_Sector) for W25QXX_Erase_Sector
    w25qxx.o(i.W25QXX_Write) refers to w25qxx.o(i.W25QXX_Write_NoCheck) for W25QXX_Write_NoCheck
    w25qxx.o(i.W25QXX_Write) refers to w25qxx.o(.bss) for W25QXX_BUFFER
    w25qxx.o(i.W25QXX_Write_Disable) refers to stm32f4xx_gpio.o(i.GPIO_ResetBits) for GPIO_ResetBits
    w25qxx.o(i.W25QXX_Write_Disable) refers to spi.o(i.SPI3_ReadWriteByte) for SPI3_ReadWriteByte
    w25qxx.o(i.W25QXX_Write_Disable) refers to stm32f4xx_gpio.o(i.GPIO_SetBits) for GPIO_SetBits
    w25qxx.o(i.W25QXX_Write_Enable) refers to stm32f4xx_gpio.o(i.GPIO_ResetBits) for GPIO_ResetBits
    w25qxx.o(i.W25QXX_Write_Enable) refers to spi.o(i.SPI3_ReadWriteByte) for SPI3_ReadWriteByte
    w25qxx.o(i.W25QXX_Write_Enable) refers to stm32f4xx_gpio.o(i.GPIO_SetBits) for GPIO_SetBits
    w25qxx.o(i.W25QXX_Write_NoCheck) refers to w25qxx.o(i.W25QXX_Write_Page) for W25QXX_Write_Page
    w25qxx.o(i.W25QXX_Write_Page) refers to w25qxx.o(i.W25QXX_Write_Enable) for W25QXX_Write_Enable
    w25qxx.o(i.W25QXX_Write_Page) refers to stm32f4xx_gpio.o(i.GPIO_ResetBits) for GPIO_ResetBits
    w25qxx.o(i.W25QXX_Write_Page) refers to spi.o(i.SPI3_ReadWriteByte) for SPI3_ReadWriteByte
    w25qxx.o(i.W25QXX_Write_Page) refers to stm32f4xx_gpio.o(i.GPIO_SetBits) for GPIO_SetBits
    w25qxx.o(i.W25QXX_Write_Page) refers to w25qxx.o(i.W25QXX_Wait_Busy) for W25QXX_Wait_Busy
    w25qxx.o(i.W25QXX_Write_SR) refers to stm32f4xx_gpio.o(i.GPIO_ResetBits) for GPIO_ResetBits
    w25qxx.o(i.W25QXX_Write_SR) refers to spi.o(i.SPI3_ReadWriteByte) for SPI3_ReadWriteByte
    w25qxx.o(i.W25QXX_Write_SR) refers to stm32f4xx_gpio.o(i.GPIO_SetBits) for GPIO_SetBits
    spi.o(i.SPI3_Init) refers to stm32f4xx_rcc.o(i.RCC_AHB1PeriphClockCmd) for RCC_AHB1PeriphClockCmd
    spi.o(i.SPI3_Init) refers to stm32f4xx_rcc.o(i.RCC_APB1PeriphClockCmd) for RCC_APB1PeriphClockCmd
    spi.o(i.SPI3_Init) refers to stm32f4xx_gpio.o(i.GPIO_Init) for GPIO_Init
    spi.o(i.SPI3_Init) refers to stm32f4xx_gpio.o(i.GPIO_PinAFConfig) for GPIO_PinAFConfig
    spi.o(i.SPI3_Init) refers to stm32f4xx_rcc.o(i.RCC_APB1PeriphResetCmd) for RCC_APB1PeriphResetCmd
    spi.o(i.SPI3_Init) refers to stm32f4xx_spi.o(i.SPI_Init) for SPI_Init
    spi.o(i.SPI3_Init) refers to stm32f4xx_spi.o(i.SPI_Cmd) for SPI_Cmd
    spi.o(i.SPI3_Init) refers to spi.o(i.SPI3_ReadWriteByte) for SPI3_ReadWriteByte
    spi.o(i.SPI3_ReadWriteByte) refers to stm32f4xx_spi.o(i.SPI_I2S_GetFlagStatus) for SPI_I2S_GetFlagStatus
    spi.o(i.SPI3_ReadWriteByte) refers to stm32f4xx_spi.o(i.SPI_I2S_SendData) for SPI_I2S_SendData
    spi.o(i.SPI3_ReadWriteByte) refers to stm32f4xx_spi.o(i.SPI_I2S_ReceiveData) for SPI_I2S_ReceiveData
    spi.o(i.SPI3_SetSpeed) refers to stm32f4xx_spi.o(i.SPI_Cmd) for SPI_Cmd
    stm32f4xx_it.o(i.BusFault_Handler) refers to stm32f4xx_it.o(i.NVIC_SystemReset) for NVIC_SystemReset
    stm32f4xx_it.o(i.HardFault_Handler) refers to stm32f4xx_it.o(i.NVIC_SystemReset) for NVIC_SystemReset
    stm32f4xx_it.o(i.MemManage_Handler) refers to stm32f4xx_it.o(i.NVIC_SystemReset) for NVIC_SystemReset
    stm32f4xx_it.o(i.UsageFault_Handler) refers to stm32f4xx_it.o(i.NVIC_SystemReset) for NVIC_SystemReset
    system_stm32f4xx.o(i.SystemCoreClockUpdate) refers to system_stm32f4xx.o(.data) for SystemCoreClock
    system_stm32f4xx.o(i.SystemInit) refers to system_stm32f4xx.o(i.SetSysClock) for SetSysClock
    startup_stm32f40_41xxx.o(RESET) refers to startup_stm32f40_41xxx.o(STACK) for __initial_sp
    startup_stm32f40_41xxx.o(RESET) refers to startup_stm32f40_41xxx.o(.text) for Reset_Handler
    startup_stm32f40_41xxx.o(RESET) refers to stm32f4xx_it.o(i.NMI_Handler) for NMI_Handler
    startup_stm32f40_41xxx.o(RESET) refers to stm32f4xx_it.o(i.HardFault_Handler) for HardFault_Handler
    startup_stm32f40_41xxx.o(RESET) refers to stm32f4xx_it.o(i.MemManage_Handler) for MemManage_Handler
    startup_stm32f40_41xxx.o(RESET) refers to stm32f4xx_it.o(i.BusFault_Handler) for BusFault_Handler
    startup_stm32f40_41xxx.o(RESET) refers to stm32f4xx_it.o(i.UsageFault_Handler) for UsageFault_Handler
    startup_stm32f40_41xxx.o(RESET) refers to stm32f4xx_it.o(i.DebugMon_Handler) for DebugMon_Handler
    startup_stm32f40_41xxx.o(RESET) refers to usart.o(i.USART1_IRQHandler) for USART1_IRQHandler
    startup_stm32f40_41xxx.o(RESET) refers to usbh_usr.o(i.OTG_FS_IRQHandler) for OTG_FS_IRQHandler
    startup_stm32f40_41xxx.o(.text) refers to system_stm32f4xx.o(i.SystemInit) for SystemInit
    startup_stm32f40_41xxx.o(.text) refers to entry.o(.ARM.Collect$$$$00000000) for __main
    stm32f4xx_flash.o(i.FLASH_EraseAllBank1Sectors) refers to stm32f4xx_flash.o(i.FLASH_WaitForLastOperation) for FLASH_WaitForLastOperation
    stm32f4xx_flash.o(i.FLASH_EraseAllBank2Sectors) refers to stm32f4xx_flash.o(i.FLASH_WaitForLastOperation) for FLASH_WaitForLastOperation
    stm32f4xx_flash.o(i.FLASH_EraseAllSectors) refers to stm32f4xx_flash.o(i.FLASH_WaitForLastOperation) for FLASH_WaitForLastOperation
    stm32f4xx_flash.o(i.FLASH_EraseSector) refers to stm32f4xx_flash.o(i.FLASH_WaitForLastOperation) for FLASH_WaitForLastOperation
    stm32f4xx_flash.o(i.FLASH_OB_Launch) refers to stm32f4xx_flash.o(i.FLASH_WaitForLastOperation) for FLASH_WaitForLastOperation
    stm32f4xx_flash.o(i.FLASH_OB_PCROP1Config) refers to stm32f4xx_flash.o(i.FLASH_WaitForLastOperation) for FLASH_WaitForLastOperation
    stm32f4xx_flash.o(i.FLASH_OB_PCROPConfig) refers to stm32f4xx_flash.o(i.FLASH_WaitForLastOperation) for FLASH_WaitForLastOperation
    stm32f4xx_flash.o(i.FLASH_OB_RDPConfig) refers to stm32f4xx_flash.o(i.FLASH_WaitForLastOperation) for FLASH_WaitForLastOperation
    stm32f4xx_flash.o(i.FLASH_OB_UserConfig) refers to stm32f4xx_flash.o(i.FLASH_WaitForLastOperation) for FLASH_WaitForLastOperation
    stm32f4xx_flash.o(i.FLASH_OB_WRP1Config) refers to stm32f4xx_flash.o(i.FLASH_WaitForLastOperation) for FLASH_WaitForLastOperation
    stm32f4xx_flash.o(i.FLASH_OB_WRPConfig) refers to stm32f4xx_flash.o(i.FLASH_WaitForLastOperation) for FLASH_WaitForLastOperation
    stm32f4xx_flash.o(i.FLASH_ProgramByte) refers to stm32f4xx_flash.o(i.FLASH_WaitForLastOperation) for FLASH_WaitForLastOperation
    stm32f4xx_flash.o(i.FLASH_ProgramDoubleWord) refers to stm32f4xx_flash.o(i.FLASH_WaitForLastOperation) for FLASH_WaitForLastOperation
    stm32f4xx_flash.o(i.FLASH_ProgramHalfWord) refers to stm32f4xx_flash.o(i.FLASH_WaitForLastOperation) for FLASH_WaitForLastOperation
    stm32f4xx_flash.o(i.FLASH_ProgramWord) refers to stm32f4xx_flash.o(i.FLASH_WaitForLastOperation) for FLASH_WaitForLastOperation
    stm32f4xx_flash.o(i.FLASH_WaitForLastOperation) refers to stm32f4xx_flash.o(i.FLASH_GetStatus) for FLASH_GetStatus
    stm32f4xx_gpio.o(i.GPIO_DeInit) refers to stm32f4xx_rcc.o(i.RCC_AHB1PeriphResetCmd) for RCC_AHB1PeriphResetCmd
    stm32f4xx_rcc.o(i.RCC_GetClocksFreq) refers to stm32f4xx_rcc.o(.data) for APBAHBPrescTable
    stm32f4xx_rcc.o(i.RCC_WaitForHSEStartUp) refers to stm32f4xx_rcc.o(i.RCC_GetFlagStatus) for RCC_GetFlagStatus
    stm32f4xx_usart.o(i.USART_DeInit) refers to stm32f4xx_rcc.o(i.RCC_APB2PeriphResetCmd) for RCC_APB2PeriphResetCmd
    stm32f4xx_usart.o(i.USART_DeInit) refers to stm32f4xx_rcc.o(i.RCC_APB1PeriphResetCmd) for RCC_APB1PeriphResetCmd
    stm32f4xx_usart.o(i.USART_Init) refers to stm32f4xx_rcc.o(i.RCC_GetClocksFreq) for RCC_GetClocksFreq
    stm32f4xx_spi.o(i.SPI_I2S_DeInit) refers to stm32f4xx_rcc.o(i.RCC_APB2PeriphResetCmd) for RCC_APB2PeriphResetCmd
    stm32f4xx_spi.o(i.SPI_I2S_DeInit) refers to stm32f4xx_rcc.o(i.RCC_APB1PeriphResetCmd) for RCC_APB1PeriphResetCmd
    malloc.o(i.my_mem_free) refers to malloc.o(.data) for mallco_dev
    malloc.o(i.my_mem_free) refers to malloc.o(.constdata) for memsize
    malloc.o(i.my_mem_init) refers to malloc.o(i.mymemset) for mymemset
    malloc.o(i.my_mem_init) refers to malloc.o(.constdata) for memtblsize
    malloc.o(i.my_mem_init) refers to malloc.o(.data) for mallco_dev
    malloc.o(i.my_mem_malloc) refers to malloc.o(.data) for mallco_dev
    malloc.o(i.my_mem_malloc) refers to malloc.o(.constdata) for memblksize
    malloc.o(i.my_mem_perused) refers to malloc.o(.data) for mallco_dev
    malloc.o(i.my_mem_perused) refers to malloc.o(.constdata) for memtblsize
    malloc.o(i.myfree) refers to malloc.o(i.my_mem_free) for my_mem_free
    malloc.o(i.myfree) refers to malloc.o(.data) for mallco_dev
    malloc.o(i.mymalloc) refers to malloc.o(i.my_mem_malloc) for my_mem_malloc
    malloc.o(i.mymalloc) refers to malloc.o(.data) for mallco_dev
    malloc.o(i.myrealloc) refers to malloc.o(i.my_mem_malloc) for my_mem_malloc
    malloc.o(i.myrealloc) refers to malloc.o(i.mymemcpy) for mymemcpy
    malloc.o(i.myrealloc) refers to malloc.o(i.myfree) for myfree
    malloc.o(i.myrealloc) refers to malloc.o(.data) for mallco_dev
    malloc.o(.data) refers to malloc.o(i.my_mem_init) for my_mem_init
    malloc.o(.data) refers to malloc.o(i.my_mem_perused) for my_mem_perused
    malloc.o(.data) refers to malloc.o(.bss) for mem1base
    malloc.o(.data) refers to malloc.o(.ARM.__AT_0x68000000) for mem2base
    malloc.o(.data) refers to malloc.o(.ARM.__AT_0x10000000) for mem3base
    malloc.o(.data) refers to malloc.o(.ARM.__AT_0x680F0000) for mem2mapbase
    malloc.o(.data) refers to malloc.o(.ARM.__AT_0x1000F000) for mem3mapbase
    entry.o(.ARM.Collect$$$$00000000) refers (Special) to entry10a.o(.ARM.Collect$$$$0000000F) for __rt_final_cpp
    entry.o(.ARM.Collect$$$$00000000) refers (Special) to entry11a.o(.ARM.Collect$$$$00000011) for __rt_final_exit
    entry.o(.ARM.Collect$$$$00000000) refers (Special) to entry12b.o(.ARM.Collect$$$$0000000E) for __rt_lib_shutdown_fini
    entry.o(.ARM.Collect$$$$00000000) refers (Special) to entry7b.o(.ARM.Collect$$$$00000008) for _main_clock
    entry.o(.ARM.Collect$$$$00000000) refers (Special) to entry8b.o(.ARM.Collect$$$$0000000A) for _main_cpp_init
    entry.o(.ARM.Collect$$$$00000000) refers (Special) to entry9a.o(.ARM.Collect$$$$0000000B) for _main_init
    entry.o(.ARM.Collect$$$$00000000) refers (Special) to entry5.o(.ARM.Collect$$$$00000004) for _main_scatterload
    entry.o(.ARM.Collect$$$$00000000) refers (Special) to entry2.o(.ARM.Collect$$$$00000001) for _main_stk
    printfb.o(i.__0fprintf$bare) refers to printfb.o(i._printf_core) for _printf_core
    printfb.o(i.__0fprintf$bare) refers to usart.o(i.fputc) for fputc
    printfb.o(i.__0printf$bare) refers to printfb.o(i._printf_core) for _printf_core
    printfb.o(i.__0printf$bare) refers to usart.o(i.fputc) for fputc
    printfb.o(i.__0printf$bare) refers to usart.o(.data) for __stdout
    printfb.o(i.__0snprintf$bare) refers to printfb.o(i._printf_core) for _printf_core
    printfb.o(i.__0snprintf$bare) refers to printfb.o(i._snputc) for _snputc
    printfb.o(i.__0sprintf$bare) refers to printfb.o(i._printf_core) for _printf_core
    printfb.o(i.__0sprintf$bare) refers to printfb.o(i._sputc) for _sputc
    printfb.o(i.__0vfprintf$bare) refers to printfb.o(i._printf_core) for _printf_core
    printfb.o(i.__0vfprintf$bare) refers to usart.o(i.fputc) for fputc
    printfb.o(i.__0vprintf$bare) refers to printfb.o(i._printf_core) for _printf_core
    printfb.o(i.__0vprintf$bare) refers to usart.o(i.fputc) for fputc
    printfb.o(i.__0vprintf$bare) refers to usart.o(.data) for __stdout
    printfb.o(i.__0vsnprintf$bare) refers to printfb.o(i._printf_core) for _printf_core
    printfb.o(i.__0vsnprintf$bare) refers to printfb.o(i._snputc) for _snputc
    printfb.o(i.__0vsprintf$bare) refers to printfb.o(i._printf_core) for _printf_core
    printfb.o(i.__0vsprintf$bare) refers to printfb.o(i._sputc) for _sputc
    printf0.o(i.__0fprintf$0) refers to printf0.o(i._printf_core) for _printf_core
    printf0.o(i.__0fprintf$0) refers to usart.o(i.fputc) for fputc
    printf0.o(i.__0printf$0) refers to printf0.o(i._printf_core) for _printf_core
    printf0.o(i.__0printf$0) refers to usart.o(i.fputc) for fputc
    printf0.o(i.__0printf$0) refers to usart.o(.data) for __stdout
    printf0.o(i.__0snprintf$0) refers to printf0.o(i._printf_core) for _printf_core
    printf0.o(i.__0snprintf$0) refers to printf0.o(i._snputc) for _snputc
    printf0.o(i.__0sprintf$0) refers to printf0.o(i._printf_core) for _printf_core
    printf0.o(i.__0sprintf$0) refers to printf0.o(i._sputc) for _sputc
    printf0.o(i.__0vfprintf$0) refers to printf0.o(i._printf_core) for _printf_core
    printf0.o(i.__0vfprintf$0) refers to usart.o(i.fputc) for fputc
    printf0.o(i.__0vprintf$0) refers to printf0.o(i._printf_core) for _printf_core
    printf0.o(i.__0vprintf$0) refers to usart.o(i.fputc) for fputc
    printf0.o(i.__0vprintf$0) refers to usart.o(.data) for __stdout
    printf0.o(i.__0vsnprintf$0) refers to printf0.o(i._printf_core) for _printf_core
    printf0.o(i.__0vsnprintf$0) refers to printf0.o(i._snputc) for _snputc
    printf0.o(i.__0vsprintf$0) refers to printf0.o(i._printf_core) for _printf_core
    printf0.o(i.__0vsprintf$0) refers to printf0.o(i._sputc) for _sputc
    printf1.o(i.__0fprintf$1) refers to printf1.o(i._printf_core) for _printf_core
    printf1.o(i.__0fprintf$1) refers to usart.o(i.fputc) for fputc
    printf1.o(i.__0printf$1) refers to printf1.o(i._printf_core) for _printf_core
    printf1.o(i.__0printf$1) refers to usart.o(i.fputc) for fputc
    printf1.o(i.__0printf$1) refers to usart.o(.data) for __stdout
    printf1.o(i.__0snprintf$1) refers to printf1.o(i._printf_core) for _printf_core
    printf1.o(i.__0snprintf$1) refers to printf1.o(i._snputc) for _snputc
    printf1.o(i.__0sprintf$1) refers to printf1.o(i._printf_core) for _printf_core
    printf1.o(i.__0sprintf$1) refers to printf1.o(i._sputc) for _sputc
    printf1.o(i.__0vfprintf$1) refers to printf1.o(i._printf_core) for _printf_core
    printf1.o(i.__0vfprintf$1) refers to usart.o(i.fputc) for fputc
    printf1.o(i.__0vprintf$1) refers to printf1.o(i._printf_core) for _printf_core
    printf1.o(i.__0vprintf$1) refers to usart.o(i.fputc) for fputc
    printf1.o(i.__0vprintf$1) refers to usart.o(.data) for __stdout
    printf1.o(i.__0vsnprintf$1) refers to printf1.o(i._printf_core) for _printf_core
    printf1.o(i.__0vsnprintf$1) refers to printf1.o(i._snputc) for _snputc
    printf1.o(i.__0vsprintf$1) refers to printf1.o(i._printf_core) for _printf_core
    printf1.o(i.__0vsprintf$1) refers to printf1.o(i._sputc) for _sputc
    printf1.o(i._printf_core) refers to uidiv.o(.text) for __aeabi_uidivmod
    printf2.o(i.__0fprintf$2) refers to printf2.o(i._printf_core) for _printf_core
    printf2.o(i.__0fprintf$2) refers to usart.o(i.fputc) for fputc
    printf2.o(i.__0printf$2) refers to printf2.o(i._printf_core) for _printf_core
    printf2.o(i.__0printf$2) refers to usart.o(i.fputc) for fputc
    printf2.o(i.__0printf$2) refers to usart.o(.data) for __stdout
    printf2.o(i.__0snprintf$2) refers to printf2.o(i._printf_core) for _printf_core
    printf2.o(i.__0snprintf$2) refers to printf2.o(i._snputc) for _snputc
    printf2.o(i.__0sprintf$2) refers to printf2.o(i._printf_core) for _printf_core
    printf2.o(i.__0sprintf$2) refers to printf2.o(i._sputc) for _sputc
    printf2.o(i.__0vfprintf$2) refers to printf2.o(i._printf_core) for _printf_core
    printf2.o(i.__0vfprintf$2) refers to usart.o(i.fputc) for fputc
    printf2.o(i.__0vprintf$2) refers to printf2.o(i._printf_core) for _printf_core
    printf2.o(i.__0vprintf$2) refers to usart.o(i.fputc) for fputc
    printf2.o(i.__0vprintf$2) refers to usart.o(.data) for __stdout
    printf2.o(i.__0vsnprintf$2) refers to printf2.o(i._printf_core) for _printf_core
    printf2.o(i.__0vsnprintf$2) refers to printf2.o(i._snputc) for _snputc
    printf2.o(i.__0vsprintf$2) refers to printf2.o(i._printf_core) for _printf_core
    printf2.o(i.__0vsprintf$2) refers to printf2.o(i._sputc) for _sputc
    printf3.o(i.__0fprintf$3) refers to printf3.o(i._printf_core) for _printf_core
    printf3.o(i.__0fprintf$3) refers to usart.o(i.fputc) for fputc
    printf3.o(i.__0printf$3) refers to printf3.o(i._printf_core) for _printf_core
    printf3.o(i.__0printf$3) refers to usart.o(i.fputc) for fputc
    printf3.o(i.__0printf$3) refers to usart.o(.data) for __stdout
    printf3.o(i.__0snprintf$3) refers to printf3.o(i._printf_core) for _printf_core
    printf3.o(i.__0snprintf$3) refers to printf3.o(i._snputc) for _snputc
    printf3.o(i.__0sprintf$3) refers to printf3.o(i._printf_core) for _printf_core
    printf3.o(i.__0sprintf$3) refers to printf3.o(i._sputc) for _sputc
    printf3.o(i.__0vfprintf$3) refers to printf3.o(i._printf_core) for _printf_core
    printf3.o(i.__0vfprintf$3) refers to usart.o(i.fputc) for fputc
    printf3.o(i.__0vprintf$3) refers to printf3.o(i._printf_core) for _printf_core
    printf3.o(i.__0vprintf$3) refers to usart.o(i.fputc) for fputc
    printf3.o(i.__0vprintf$3) refers to usart.o(.data) for __stdout
    printf3.o(i.__0vsnprintf$3) refers to printf3.o(i._printf_core) for _printf_core
    printf3.o(i.__0vsnprintf$3) refers to printf3.o(i._snputc) for _snputc
    printf3.o(i.__0vsprintf$3) refers to printf3.o(i._printf_core) for _printf_core
    printf3.o(i.__0vsprintf$3) refers to printf3.o(i._sputc) for _sputc
    printf3.o(i._printf_core) refers to uidiv.o(.text) for __aeabi_uidivmod
    printf4.o(i.__0fprintf$4) refers to printf4.o(i._printf_core) for _printf_core
    printf4.o(i.__0fprintf$4) refers to usart.o(i.fputc) for fputc
    printf4.o(i.__0printf$4) refers to printf4.o(i._printf_core) for _printf_core
    printf4.o(i.__0printf$4) refers to usart.o(i.fputc) for fputc
    printf4.o(i.__0printf$4) refers to usart.o(.data) for __stdout
    printf4.o(i.__0snprintf$4) refers to printf4.o(i._printf_core) for _printf_core
    printf4.o(i.__0snprintf$4) refers to printf4.o(i._snputc) for _snputc
    printf4.o(i.__0sprintf$4) refers to printf4.o(i._printf_core) for _printf_core
    printf4.o(i.__0sprintf$4) refers to printf4.o(i._sputc) for _sputc
    printf4.o(i.__0vfprintf$4) refers to printf4.o(i._printf_core) for _printf_core
    printf4.o(i.__0vfprintf$4) refers to usart.o(i.fputc) for fputc
    printf4.o(i.__0vprintf$4) refers to printf4.o(i._printf_core) for _printf_core
    printf4.o(i.__0vprintf$4) refers to usart.o(i.fputc) for fputc
    printf4.o(i.__0vprintf$4) refers to usart.o(.data) for __stdout
    printf4.o(i.__0vsnprintf$4) refers to printf4.o(i._printf_core) for _printf_core
    printf4.o(i.__0vsnprintf$4) refers to printf4.o(i._snputc) for _snputc
    printf4.o(i.__0vsprintf$4) refers to printf4.o(i._printf_core) for _printf_core
    printf4.o(i.__0vsprintf$4) refers to printf4.o(i._sputc) for _sputc
    printf4.o(i._printf_core) refers to uldiv.o(.text) for __aeabi_uldivmod
    printf5.o(i.__0fprintf$5) refers to printf5.o(i._printf_core) for _printf_core
    printf5.o(i.__0fprintf$5) refers to usart.o(i.fputc) for fputc
    printf5.o(i.__0printf$5) refers to printf5.o(i._printf_core) for _printf_core
    printf5.o(i.__0printf$5) refers to usart.o(i.fputc) for fputc
    printf5.o(i.__0printf$5) refers to usart.o(.data) for __stdout
    printf5.o(i.__0snprintf$5) refers to printf5.o(i._printf_core) for _printf_core
    printf5.o(i.__0snprintf$5) refers to printf5.o(i._snputc) for _snputc
    printf5.o(i.__0sprintf$5) refers to printf5.o(i._printf_core) for _printf_core
    printf5.o(i.__0sprintf$5) refers to printf5.o(i._sputc) for _sputc
    printf5.o(i.__0vfprintf$5) refers to printf5.o(i._printf_core) for _printf_core
    printf5.o(i.__0vfprintf$5) refers to usart.o(i.fputc) for fputc
    printf5.o(i.__0vprintf$5) refers to printf5.o(i._printf_core) for _printf_core
    printf5.o(i.__0vprintf$5) refers to usart.o(i.fputc) for fputc
    printf5.o(i.__0vprintf$5) refers to usart.o(.data) for __stdout
    printf5.o(i.__0vsnprintf$5) refers to printf5.o(i._printf_core) for _printf_core
    printf5.o(i.__0vsnprintf$5) refers to printf5.o(i._snputc) for _snputc
    printf5.o(i.__0vsprintf$5) refers to printf5.o(i._printf_core) for _printf_core
    printf5.o(i.__0vsprintf$5) refers to printf5.o(i._sputc) for _sputc
    printf5.o(i._printf_core) refers to uldiv.o(.text) for __aeabi_uldivmod
    printf6.o(i.__0fprintf$6) refers to printf6.o(i._printf_core) for _printf_core
    printf6.o(i.__0fprintf$6) refers to usart.o(i.fputc) for fputc
    printf6.o(i.__0printf$6) refers to printf6.o(i._printf_core) for _printf_core
    printf6.o(i.__0printf$6) refers to usart.o(i.fputc) for fputc
    printf6.o(i.__0printf$6) refers to usart.o(.data) for __stdout
    printf6.o(i.__0snprintf$6) refers to printf6.o(i._printf_core) for _printf_core
    printf6.o(i.__0snprintf$6) refers to printf6.o(i._snputc) for _snputc
    printf6.o(i.__0sprintf$6) refers to printf6.o(i._printf_core) for _printf_core
    printf6.o(i.__0sprintf$6) refers to printf6.o(i._sputc) for _sputc
    printf6.o(i.__0vfprintf$6) refers to printf6.o(i._printf_core) for _printf_core
    printf6.o(i.__0vfprintf$6) refers to usart.o(i.fputc) for fputc
    printf6.o(i.__0vprintf$6) refers to printf6.o(i._printf_core) for _printf_core
    printf6.o(i.__0vprintf$6) refers to usart.o(i.fputc) for fputc
    printf6.o(i.__0vprintf$6) refers to usart.o(.data) for __stdout
    printf6.o(i.__0vsnprintf$6) refers to printf6.o(i._printf_core) for _printf_core
    printf6.o(i.__0vsnprintf$6) refers to printf6.o(i._snputc) for _snputc
    printf6.o(i.__0vsprintf$6) refers to printf6.o(i._printf_core) for _printf_core
    printf6.o(i.__0vsprintf$6) refers to printf6.o(i._sputc) for _sputc
    printf6.o(i._printf_core) refers to printf6.o(i._printf_pre_padding) for _printf_pre_padding
    printf6.o(i._printf_core) refers to uidiv.o(.text) for __aeabi_uidivmod
    printf6.o(i._printf_core) refers to printf6.o(i._printf_post_padding) for _printf_post_padding
    printf7.o(i.__0fprintf$7) refers to printf7.o(i._printf_core) for _printf_core
    printf7.o(i.__0fprintf$7) refers to usart.o(i.fputc) for fputc
    printf7.o(i.__0printf$7) refers to printf7.o(i._printf_core) for _printf_core
    printf7.o(i.__0printf$7) refers to usart.o(i.fputc) for fputc
    printf7.o(i.__0printf$7) refers to usart.o(.data) for __stdout
    printf7.o(i.__0snprintf$7) refers to printf7.o(i._printf_core) for _printf_core
    printf7.o(i.__0snprintf$7) refers to printf7.o(i._snputc) for _snputc
    printf7.o(i.__0sprintf$7) refers to printf7.o(i._printf_core) for _printf_core
    printf7.o(i.__0sprintf$7) refers to printf7.o(i._sputc) for _sputc
    printf7.o(i.__0vfprintf$7) refers to printf7.o(i._printf_core) for _printf_core
    printf7.o(i.__0vfprintf$7) refers to usart.o(i.fputc) for fputc
    printf7.o(i.__0vprintf$7) refers to printf7.o(i._printf_core) for _printf_core
    printf7.o(i.__0vprintf$7) refers to usart.o(i.fputc) for fputc
    printf7.o(i.__0vprintf$7) refers to usart.o(.data) for __stdout
    printf7.o(i.__0vsnprintf$7) refers to printf7.o(i._printf_core) for _printf_core
    printf7.o(i.__0vsnprintf$7) refers to printf7.o(i._snputc) for _snputc
    printf7.o(i.__0vsprintf$7) refers to printf7.o(i._printf_core) for _printf_core
    printf7.o(i.__0vsprintf$7) refers to printf7.o(i._sputc) for _sputc
    printf7.o(i._printf_core) refers to printf7.o(i._printf_pre_padding) for _printf_pre_padding
    printf7.o(i._printf_core) refers to uldiv.o(.text) for __aeabi_uldivmod
    printf7.o(i._printf_core) refers to printf7.o(i._printf_post_padding) for _printf_post_padding
    printf8.o(i.__0fprintf$8) refers to printf8.o(i._printf_core) for _printf_core
    printf8.o(i.__0fprintf$8) refers to usart.o(i.fputc) for fputc
    printf8.o(i.__0printf$8) refers to printf8.o(i._printf_core) for _printf_core
    printf8.o(i.__0printf$8) refers to usart.o(i.fputc) for fputc
    printf8.o(i.__0printf$8) refers to usart.o(.data) for __stdout
    printf8.o(i.__0snprintf$8) refers to printf8.o(i._printf_core) for _printf_core
    printf8.o(i.__0snprintf$8) refers to printf8.o(i._snputc) for _snputc
    printf8.o(i.__0sprintf$8) refers to printf8.o(i._printf_core) for _printf_core
    printf8.o(i.__0sprintf$8) refers to printf8.o(i._sputc) for _sputc
    printf8.o(i.__0vfprintf$8) refers to printf8.o(i._printf_core) for _printf_core
    printf8.o(i.__0vfprintf$8) refers to usart.o(i.fputc) for fputc
    printf8.o(i.__0vprintf$8) refers to printf8.o(i._printf_core) for _printf_core
    printf8.o(i.__0vprintf$8) refers to usart.o(i.fputc) for fputc
    printf8.o(i.__0vprintf$8) refers to usart.o(.data) for __stdout
    printf8.o(i.__0vsnprintf$8) refers to printf8.o(i._printf_core) for _printf_core
    printf8.o(i.__0vsnprintf$8) refers to printf8.o(i._snputc) for _snputc
    printf8.o(i.__0vsprintf$8) refers to printf8.o(i._printf_core) for _printf_core
    printf8.o(i.__0vsprintf$8) refers to printf8.o(i._sputc) for _sputc
    printf8.o(i._printf_core) refers to printf8.o(i._printf_pre_padding) for _printf_pre_padding
    printf8.o(i._printf_core) refers to uldiv.o(.text) for __aeabi_uldivmod
    printf8.o(i._printf_core) refers to printf8.o(i._printf_post_padding) for _printf_post_padding
    printfa.o(i.__0fprintf) refers (Special) to iusefp.o(.text) for __I$use$fp
    printfa.o(i.__0fprintf) refers to printfa.o(i._printf_core) for _printf_core
    printfa.o(i.__0fprintf) refers to usart.o(i.fputc) for fputc
    printfa.o(i.__0printf) refers (Special) to iusefp.o(.text) for __I$use$fp
    printfa.o(i.__0printf) refers to printfa.o(i._printf_core) for _printf_core
    printfa.o(i.__0printf) refers to usart.o(i.fputc) for fputc
    printfa.o(i.__0printf) refers to usart.o(.data) for __stdout
    printfa.o(i.__0snprintf) refers (Special) to iusefp.o(.text) for __I$use$fp
    printfa.o(i.__0snprintf) refers to printfa.o(i._printf_core) for _printf_core
    printfa.o(i.__0snprintf) refers to printfa.o(i._snputc) for _snputc
    printfa.o(i.__0sprintf) refers (Special) to iusefp.o(.text) for __I$use$fp
    printfa.o(i.__0sprintf) refers to printfa.o(i._printf_core) for _printf_core
    printfa.o(i.__0sprintf) refers to printfa.o(i._sputc) for _sputc
    printfa.o(i.__0vfprintf) refers (Special) to iusefp.o(.text) for __I$use$fp
    printfa.o(i.__0vfprintf) refers to printfa.o(i._printf_core) for _printf_core
    printfa.o(i.__0vfprintf) refers to usart.o(i.fputc) for fputc
    printfa.o(i.__0vprintf) refers (Special) to iusefp.o(.text) for __I$use$fp
    printfa.o(i.__0vprintf) refers to printfa.o(i._printf_core) for _printf_core
    printfa.o(i.__0vprintf) refers to usart.o(i.fputc) for fputc
    printfa.o(i.__0vprintf) refers to usart.o(.data) for __stdout
    printfa.o(i.__0vsnprintf) refers (Special) to iusefp.o(.text) for __I$use$fp
    printfa.o(i.__0vsnprintf) refers to printfa.o(i._printf_core) for _printf_core
    printfa.o(i.__0vsnprintf) refers to printfa.o(i._snputc) for _snputc
    printfa.o(i.__0vsprintf) refers (Special) to iusefp.o(.text) for __I$use$fp
    printfa.o(i.__0vsprintf) refers to printfa.o(i._printf_core) for _printf_core
    printfa.o(i.__0vsprintf) refers to printfa.o(i._sputc) for _sputc
    printfa.o(i._fp_digits) refers (Special) to iusefp.o(.text) for __I$use$fp
    printfa.o(i._fp_digits) refers to dmul.o(.text) for __aeabi_dmul
    printfa.o(i._fp_digits) refers to ddiv.o(.text) for __aeabi_ddiv
    printfa.o(i._fp_digits) refers to cdrcmple.o(.text) for __aeabi_cdrcmple
    printfa.o(i._fp_digits) refers to dadd.o(.text) for __aeabi_dadd
    printfa.o(i._fp_digits) refers to dfixul.o(.text) for __aeabi_d2ulz
    printfa.o(i._fp_digits) refers to uldiv.o(.text) for __aeabi_uldivmod
    printfa.o(i._printf_core) refers (Special) to iusefp.o(.text) for __I$use$fp
    printfa.o(i._printf_core) refers to printfa.o(i._printf_pre_padding) for _printf_pre_padding
    printfa.o(i._printf_core) refers to uldiv.o(.text) for __aeabi_uldivmod
    printfa.o(i._printf_core) refers to printfa.o(i._printf_post_padding) for _printf_post_padding
    printfa.o(i._printf_core) refers to printfa.o(i._fp_digits) for _fp_digits
    printfa.o(i._printf_core) refers to uidiv.o(.text) for __aeabi_uidivmod
    printfa.o(i._printf_post_padding) refers (Special) to iusefp.o(.text) for __I$use$fp
    printfa.o(i._printf_pre_padding) refers (Special) to iusefp.o(.text) for __I$use$fp
    printfa.o(i._snputc) refers (Special) to iusefp.o(.text) for __I$use$fp
    printfa.o(i._sputc) refers (Special) to iusefp.o(.text) for __I$use$fp
    f2d.o(.text) refers (Special) to iusefp.o(.text) for __I$use$fp
    entry2.o(.ARM.Collect$$$$00000001) refers to entry2.o(.ARM.Collect$$$$00002712) for __lit__00000000
    entry2.o(.ARM.Collect$$$$00002712) refers to startup_stm32f40_41xxx.o(STACK) for __initial_sp
    entry2.o(__vectab_stack_and_reset_area) refers to startup_stm32f40_41xxx.o(STACK) for __initial_sp
    entry2.o(__vectab_stack_and_reset_area) refers to entry.o(.ARM.Collect$$$$00000000) for __main
    entry5.o(.ARM.Collect$$$$00000004) refers to init.o(.text) for __scatterload
    entry9a.o(.ARM.Collect$$$$0000000B) refers to main.o(i.main) for main
    entry9b.o(.ARM.Collect$$$$0000000C) refers to main.o(i.main) for main
    uldiv.o(.text) refers to llushr.o(.text) for __aeabi_llsr
    uldiv.o(.text) refers to llshl.o(.text) for __aeabi_llsl
    dadd.o(.text) refers to llshl.o(.text) for __aeabi_llsl
    dadd.o(.text) refers to llsshr.o(.text) for __aeabi_lasr
    dadd.o(.text) refers to depilogue.o(.text) for _double_epilogue
    dmul.o(.text) refers to depilogue.o(.text) for _double_epilogue
    ddiv.o(.text) refers to depilogue.o(.text) for _double_round
    dfixul.o(.text) refers to llushr.o(.text) for __aeabi_llsr
    dfixul.o(.text) refers to llshl.o(.text) for __aeabi_llsl
    init.o(.text) refers to entry5.o(.ARM.Collect$$$$00000004) for __main_after_scatterload
    depilogue.o(.text) refers to llshl.o(.text) for __aeabi_llsl
    depilogue.o(.text) refers to llushr.o(.text) for __aeabi_llsr


==============================================================================

Removing Unused input sections from the image.

    Removing main.o(.rev16_text), (4 bytes).
    Removing main.o(.revsh_text), (4 bytes).
    Removing bsp.o(.rev16_text), (4 bytes).
    Removing bsp.o(.revsh_text), (4 bytes).
    Removing iap.o(.rev16_text), (4 bytes).
    Removing iap.o(.revsh_text), (4 bytes).
    Removing stmflash.o(.rev16_text), (4 bytes).
    Removing stmflash.o(.revsh_text), (4 bytes).
    Removing stmflash.o(i.STMFLASH_Read), (32 bytes).
    Removing usb_hcd.o(.rev16_text), (4 bytes).
    Removing usb_hcd.o(.revsh_text), (4 bytes).
    Removing usb_hcd.o(i.HCD_GetHCState), (10 bytes).
    Removing usb_hcd.o(i.HCD_HC_Init), (16 bytes).
    Removing usb_core.o(.rev16_text), (4 bytes).
    Removing usb_core.o(.revsh_text), (4 bytes).
    Removing usb_core.o(i.USB_OTG_IsDeviceMode), (22 bytes).
    Removing usb_core.o(i.USB_OTG_ReadOtgItr), (8 bytes).
    Removing usb_core.o(i.USB_OTG_StopHost), (96 bytes).
    Removing usb_hcd_int.o(.rev16_text), (4 bytes).
    Removing usb_hcd_int.o(.revsh_text), (4 bytes).
    Removing usbh_core.o(.rev16_text), (4 bytes).
    Removing usbh_core.o(.revsh_text), (4 bytes).
    Removing usbh_hcs.o(.rev16_text), (4 bytes).
    Removing usbh_hcs.o(.revsh_text), (4 bytes).
    Removing usbh_ioreq.o(.rev16_text), (4 bytes).
    Removing usbh_ioreq.o(.revsh_text), (4 bytes).
    Removing usbh_ioreq.o(i.USBH_InterruptReceiveData), (120 bytes).
    Removing usbh_ioreq.o(i.USBH_InterruptSendData), (118 bytes).
    Removing usbh_ioreq.o(i.USBH_IsocReceiveData), (70 bytes).
    Removing usbh_ioreq.o(i.USBH_IsocSendData), (68 bytes).
    Removing usbh_stdreq.o(.rev16_text), (4 bytes).
    Removing usbh_stdreq.o(.revsh_text), (4 bytes).
    Removing usbh_stdreq.o(i.USBH_SetInterface), (44 bytes).
    Removing usbh_msc_bot.o(.rev16_text), (4 bytes).
    Removing usbh_msc_bot.o(.revsh_text), (4 bytes).
    Removing usbh_msc_core.o(.rev16_text), (4 bytes).
    Removing usbh_msc_core.o(.revsh_text), (4 bytes).
    Removing usbh_msc_scsi.o(.rev16_text), (4 bytes).
    Removing usbh_msc_scsi.o(.revsh_text), (4 bytes).
    Removing usbh_usr.o(.rev16_text), (4 bytes).
    Removing usbh_usr.o(.revsh_text), (4 bytes).
    Removing usbh_usr.o(i.Explore_Disk), (132 bytes).
    Removing usbh_usr.o(i.File_Read), (58 bytes).
    Removing usbh_usr.o(i.HUSB_BootLoader), (2 bytes).
    Removing usb_bsp.o(.rev16_text), (4 bytes).
    Removing usb_bsp.o(.revsh_text), (4 bytes).
    Removing usb_bsp.o(i.USB_OTG_BSP_DisableInterrupt), (2 bytes).
    Removing delay.o(.rev16_text), (4 bytes).
    Removing delay.o(.revsh_text), (4 bytes).
    Removing sys.o(.rev16_text), (4 bytes).
    Removing sys.o(.revsh_text), (4 bytes).
    Removing sys.o(i.LED_Init), (52 bytes).
    Removing sys.o(i.LED_Work), (48 bytes).
    Removing sys.o(i.wdg_init), (64 bytes).
    Removing cmd_queue.o(.rev16_text), (4 bytes).
    Removing cmd_queue.o(.revsh_text), (4 bytes).
    Removing cmd_queue.o(i.queue_Byte), (72 bytes).
    Removing hmi_app.o(.rev16_text), (4 bytes).
    Removing hmi_app.o(.revsh_text), (4 bytes).
    Removing hmi_app.o(i.NotifyTouchXY), (2 bytes).
    Removing hmi_app.o(i.SetTextValueFloat), (76 bytes).
    Removing hmi_app.o(i.SetTextValueint32_t), (44 bytes).
    Removing hmi_driver.o(.rev16_text), (4 bytes).
    Removing hmi_driver.o(.revsh_text), (4 bytes).
    Removing hmi_driver.o(i.AnimationPause), (74 bytes).
    Removing hmi_driver.o(i.AnimationPlayFrame), (82 bytes).
    Removing hmi_driver.o(i.AnimationPlayNext), (74 bytes).
    Removing hmi_driver.o(i.AnimationPlayPrev), (74 bytes).
    Removing hmi_driver.o(i.AnimationStart), (74 bytes).
    Removing hmi_driver.o(i.AnimationStop), (74 bytes).
    Removing hmi_driver.o(i.BatchBegin), (36 bytes).
    Removing hmi_driver.o(i.BatchEnd), (28 bytes).
    Removing hmi_driver.o(i.BatchSetButtonValue), (38 bytes).
    Removing hmi_driver.o(i.BatchSetFrame), (44 bytes).
    Removing hmi_driver.o(i.BatchSetMeterValue), (60 bytes).
    Removing hmi_driver.o(i.BatchSetProgressValue), (60 bytes).
    Removing hmi_driver.o(i.BatchSetSliderValue), (60 bytes).
    Removing hmi_driver.o(i.BatchSetText), (56 bytes).
    Removing hmi_driver.o(i.CalibrateTouchPane), (40 bytes).
    Removing hmi_driver.o(i.ClearLayer), (48 bytes).
    Removing hmi_driver.o(i.ColorPicker), (76 bytes).
    Removing hmi_driver.o(i.CopyLayer), (56 bytes).
    Removing hmi_driver.o(i.DisArea_Image), (94 bytes).
    Removing hmi_driver.o(i.DisCursor), (100 bytes).
    Removing hmi_driver.o(i.DisCut_Image), (164 bytes).
    Removing hmi_driver.o(i.DisFlashImage), (106 bytes).
    Removing hmi_driver.o(i.DisFull_Image), (62 bytes).
    Removing hmi_driver.o(i.DisText), (98 bytes).
    Removing hmi_driver.o(i.DisplyLayer), (48 bytes).
    Removing hmi_driver.o(i.GUI_Arc), (120 bytes).
    Removing hmi_driver.o(i.GUI_AreaInycolor), (100 bytes).
    Removing hmi_driver.o(i.GUI_BcolorConDots), (58 bytes).
    Removing hmi_driver.o(i.GUI_BcolorConOffsetDots), (84 bytes).
    Removing hmi_driver.o(i.GUI_Circle), (82 bytes).
    Removing hmi_driver.o(i.GUI_CircleFill), (82 bytes).
    Removing hmi_driver.o(i.GUI_CleanScreen), (40 bytes).
    Removing hmi_driver.o(i.GUI_ConDots), (66 bytes).
    Removing hmi_driver.o(i.GUI_ConSpaceDots), (84 bytes).
    Removing hmi_driver.o(i.GUI_DispRTC), (118 bytes).
    Removing hmi_driver.o(i.GUI_Dot), (68 bytes).
    Removing hmi_driver.o(i.GUI_Ellipse), (100 bytes).
    Removing hmi_driver.o(i.GUI_EllipseFill), (100 bytes).
    Removing hmi_driver.o(i.GUI_FcolorConDots), (58 bytes).
    Removing hmi_driver.o(i.GUI_FcolorConOffsetDots), (84 bytes).
    Removing hmi_driver.o(i.GUI_Line), (100 bytes).
    Removing hmi_driver.o(i.GUI_Rectangle), (100 bytes).
    Removing hmi_driver.o(i.GUI_RectangleFill), (100 bytes).
    Removing hmi_driver.o(i.GetControlValue), (74 bytes).
    Removing hmi_driver.o(i.GetScreen), (46 bytes).
    Removing hmi_driver.o(i.GetStringLen), (18 bytes).
    Removing hmi_driver.o(i.GraphChannelAdd), (100 bytes).
    Removing hmi_driver.o(i.GraphChannelDataAdd), (110 bytes).
    Removing hmi_driver.o(i.GraphChannelDataClear), (82 bytes).
    Removing hmi_driver.o(i.GraphChannelDel), (82 bytes).
    Removing hmi_driver.o(i.GraphSetViewport), (144 bytes).
    Removing hmi_driver.o(i.LockDeviceConfig), (64 bytes).
    Removing hmi_driver.o(i.PauseTimer), (74 bytes).
    Removing hmi_driver.o(i.ReadUserFlash), (84 bytes).
    Removing hmi_driver.o(i.SeTimer), (104 bytes).
    Removing hmi_driver.o(i.SendNU16), (38 bytes).
    Removing hmi_driver.o(i.SendStrings), (22 bytes).
    Removing hmi_driver.o(i.SendUint16), (26 bytes).
    Removing hmi_driver.o(i.SetBackLight), (48 bytes).
    Removing hmi_driver.o(i.SetBcolor), (54 bytes).
    Removing hmi_driver.o(i.SetButtonValue), (82 bytes).
    Removing hmi_driver.o(i.SetBuzzer), (48 bytes).
    Removing hmi_driver.o(i.SetCommBps), (48 bytes).
    Removing hmi_driver.o(i.SetControlBackColor), (88 bytes).
    Removing hmi_driver.o(i.SetControlEnable), (82 bytes).
    Removing hmi_driver.o(i.SetControlFocus), (82 bytes).
    Removing hmi_driver.o(i.SetControlForeColor), (88 bytes).
    Removing hmi_driver.o(i.SetControlVisiable), (82 bytes).
    Removing hmi_driver.o(i.SetFcolor), (54 bytes).
    Removing hmi_driver.o(i.SetFilterColor), (68 bytes).
    Removing hmi_driver.o(i.SetFont_Region), (76 bytes).
    Removing hmi_driver.o(i.SetHandShake), (40 bytes).
    Removing hmi_driver.o(i.SetMeterValue), (104 bytes).
    Removing hmi_driver.o(i.SetPowerSaving), (76 bytes).
    Removing hmi_driver.o(i.SetScreenUpdateEnable), (48 bytes).
    Removing hmi_driver.o(i.SetSelectorValue), (82 bytes).
    Removing hmi_driver.o(i.SetSliderValue), (104 bytes).
    Removing hmi_driver.o(i.SetTextSpace), (56 bytes).
    Removing hmi_driver.o(i.SetTextValue), (82 bytes).
    Removing hmi_driver.o(i.SetTouchPaneOption), (92 bytes).
    Removing hmi_driver.o(i.ShowKeyboard), (108 bytes).
    Removing hmi_driver.o(i.ShowPopupMenu), (100 bytes).
    Removing hmi_driver.o(i.StartDownLoad), (32 bytes).
    Removing hmi_driver.o(i.StartTimer), (74 bytes).
    Removing hmi_driver.o(i.StopTimer), (74 bytes).
    Removing hmi_driver.o(i.TestTouchPane), (40 bytes).
    Removing hmi_driver.o(i.UnlockDeviceConfig), (64 bytes).
    Removing hmi_driver.o(i.WriteLayer), (48 bytes).
    Removing hmi_driver.o(i.WriteUserFlash), (82 bytes).
    Removing usart.o(.rev16_text), (4 bytes).
    Removing usart.o(.revsh_text), (4 bytes).
    Removing usart.o(i._sys_exit), (4 bytes).
    Removing diskio.o(.rev16_text), (4 bytes).
    Removing diskio.o(.revsh_text), (4 bytes).
    Removing ff.o(.rev16_text), (4 bytes).
    Removing ff.o(.revsh_text), (4 bytes).
    Removing ff.o(i.dir_read), (196 bytes).
    Removing ff.o(i.dir_remove), (106 bytes).
    Removing ff.o(i.f_chmod), (112 bytes).
    Removing ff.o(i.f_closedir), (22 bytes).
    Removing ff.o(i.f_copy), (144 bytes).
    Removing ff.o(i.f_getfree), (258 bytes).
    Removing ff.o(i.f_getlabel), (190 bytes).
    Removing ff.o(i.f_gets), (82 bytes).
    Removing ff.o(i.f_lseek), (696 bytes).
    Removing ff.o(i.f_mkdir), (380 bytes).
    Removing ff.o(i.f_mkfs), (1660 bytes).
    Removing ff.o(i.f_opendir), (136 bytes).
    Removing ff.o(i.f_printf), (628 bytes).
    Removing ff.o(i.f_putc), (64 bytes).
    Removing ff.o(i.f_puts), (74 bytes).
    Removing ff.o(i.f_readdir), (114 bytes).
    Removing ff.o(i.f_rename), (314 bytes).
    Removing ff.o(i.f_setlabel), (488 bytes).
    Removing ff.o(i.f_stat), (84 bytes).
    Removing ff.o(i.f_truncate), (184 bytes).
    Removing ff.o(i.f_unlink), (194 bytes).
    Removing ff.o(i.f_utime), (110 bytes).
    Removing ff.o(i.f_write), (540 bytes).
    Removing ff.o(i.get_fileinfo), (268 bytes).
    Removing ff.o(i.mf_copy), (216 bytes).
    Removing ff.o(i.pick_lfn), (116 bytes).
    Removing ff.o(i.putc_bfd), (68 bytes).
    Removing cc936.o(.rev16_text), (4 bytes).
    Removing cc936.o(.revsh_text), (4 bytes).
    Removing exfuns.o(.rev16_text), (4 bytes).
    Removing exfuns.o(.revsh_text), (4 bytes).
    Removing exfuns.o(i.char_upper), (26 bytes).
    Removing exfuns.o(i.exf_getfree), (102 bytes).
    Removing exfuns.o(i.f_typetell), (176 bytes).
    Removing exfuns.o(.constdata), (112 bytes).
    Removing exfuns.o(.conststring), (68 bytes).
    Removing fattester.o(.rev16_text), (4 bytes).
    Removing fattester.o(.revsh_text), (4 bytes).
    Removing fattester.o(i.mf_close), (20 bytes).
    Removing fattester.o(i.mf_closedir), (16 bytes).
    Removing fattester.o(i.mf_fmkfs), (20 bytes).
    Removing fattester.o(i.mf_getlabel), (24 bytes).
    Removing fattester.o(i.mf_gets), (40 bytes).
    Removing fattester.o(i.mf_lseek), (20 bytes).
    Removing fattester.o(i.mf_mkdir), (12 bytes).
    Removing fattester.o(i.mf_mount), (24 bytes).
    Removing fattester.o(i.mf_open), (28 bytes).
    Removing fattester.o(i.mf_opendir), (20 bytes).
    Removing fattester.o(i.mf_putc), (24 bytes).
    Removing fattester.o(i.mf_puts), (24 bytes).
    Removing fattester.o(i.mf_read), (140 bytes).
    Removing fattester.o(i.mf_readdir), (96 bytes).
    Removing fattester.o(i.mf_rename), (16 bytes).
    Removing fattester.o(i.mf_scan_files), (108 bytes).
    Removing fattester.o(i.mf_setlabel), (12 bytes).
    Removing fattester.o(i.mf_showfree), (88 bytes).
    Removing fattester.o(i.mf_size), (12 bytes).
    Removing fattester.o(i.mf_tell), (12 bytes).
    Removing fattester.o(i.mf_unlink), (12 bytes).
    Removing fattester.o(i.mf_write), (36 bytes).
    Removing w25qxx.o(.rev16_text), (4 bytes).
    Removing w25qxx.o(.revsh_text), (4 bytes).
    Removing w25qxx.o(i.W25QXX_Erase_Chip), (48 bytes).
    Removing w25qxx.o(i.W25QXX_Erase_Sector), (72 bytes).
    Removing w25qxx.o(i.W25QXX_Init), (96 bytes).
    Removing w25qxx.o(i.W25QXX_PowerDown), (40 bytes).
    Removing w25qxx.o(i.W25QXX_Read), (88 bytes).
    Removing w25qxx.o(i.W25QXX_ReadID), (76 bytes).
    Removing w25qxx.o(i.W25QXX_ReadSR), (48 bytes).
    Removing w25qxx.o(i.W25QXX_WAKEUP), (40 bytes).
    Removing w25qxx.o(i.W25QXX_Wait_Busy), (18 bytes).
    Removing w25qxx.o(i.W25QXX_Write), (184 bytes).
    Removing w25qxx.o(i.W25QXX_Write_Disable), (36 bytes).
    Removing w25qxx.o(i.W25QXX_Write_Enable), (36 bytes).
    Removing w25qxx.o(i.W25QXX_Write_NoCheck), (70 bytes).
    Removing w25qxx.o(i.W25QXX_Write_Page), (92 bytes).
    Removing w25qxx.o(i.W25QXX_Write_SR), (44 bytes).
    Removing w25qxx.o(.bss), (4096 bytes).
    Removing w25qxx.o(.data), (2 bytes).
    Removing spi.o(.rev16_text), (4 bytes).
    Removing spi.o(.revsh_text), (4 bytes).
    Removing spi.o(i.SPI3_Init), (196 bytes).
    Removing spi.o(i.SPI3_ReadWriteByte), (56 bytes).
    Removing spi.o(i.SPI3_SetSpeed), (40 bytes).
    Removing stm32f4xx_it.o(.rev16_text), (4 bytes).
    Removing stm32f4xx_it.o(.revsh_text), (4 bytes).
    Removing system_stm32f4xx.o(.rev16_text), (4 bytes).
    Removing system_stm32f4xx.o(.revsh_text), (4 bytes).
    Removing system_stm32f4xx.o(i.SystemCoreClockUpdate), (192 bytes).
    Removing system_stm32f4xx.o(.data), (20 bytes).
    Removing startup_stm32f40_41xxx.o(HEAP), (512 bytes).
    Removing misc.o(.rev16_text), (4 bytes).
    Removing misc.o(.revsh_text), (4 bytes).
    Removing misc.o(i.NVIC_SystemLPConfig), (32 bytes).
    Removing stm32f4xx_exti.o(.rev16_text), (4 bytes).
    Removing stm32f4xx_exti.o(.revsh_text), (4 bytes).
    Removing stm32f4xx_exti.o(i.EXTI_ClearFlag), (12 bytes).
    Removing stm32f4xx_exti.o(i.EXTI_ClearITPendingBit), (12 bytes).
    Removing stm32f4xx_exti.o(i.EXTI_DeInit), (36 bytes).
    Removing stm32f4xx_exti.o(i.EXTI_GenerateSWInterrupt), (16 bytes).
    Removing stm32f4xx_exti.o(i.EXTI_GetFlagStatus), (24 bytes).
    Removing stm32f4xx_exti.o(i.EXTI_GetITStatus), (24 bytes).
    Removing stm32f4xx_exti.o(i.EXTI_Init), (148 bytes).
    Removing stm32f4xx_exti.o(i.EXTI_StructInit), (16 bytes).
    Removing stm32f4xx_flash.o(.rev16_text), (4 bytes).
    Removing stm32f4xx_flash.o(.revsh_text), (4 bytes).
    Removing stm32f4xx_flash.o(i.FLASH_ClearFlag), (12 bytes).
    Removing stm32f4xx_flash.o(i.FLASH_DataCacheReset), (20 bytes).
    Removing stm32f4xx_flash.o(i.FLASH_EraseAllBank1Sectors), (108 bytes).
    Removing stm32f4xx_flash.o(i.FLASH_EraseAllBank2Sectors), (108 bytes).
    Removing stm32f4xx_flash.o(i.FLASH_EraseAllSectors), (108 bytes).
    Removing stm32f4xx_flash.o(i.FLASH_GetFlagStatus), (24 bytes).
    Removing stm32f4xx_flash.o(i.FLASH_ITConfig), (32 bytes).
    Removing stm32f4xx_flash.o(i.FLASH_InstructionCacheCmd), (36 bytes).
    Removing stm32f4xx_flash.o(i.FLASH_InstructionCacheReset), (20 bytes).
    Removing stm32f4xx_flash.o(i.FLASH_OB_BORConfig), (28 bytes).
    Removing stm32f4xx_flash.o(i.FLASH_OB_BootConfig), (28 bytes).
    Removing stm32f4xx_flash.o(i.FLASH_OB_GetBOR), (16 bytes).
    Removing stm32f4xx_flash.o(i.FLASH_OB_GetPCROP), (12 bytes).
    Removing stm32f4xx_flash.o(i.FLASH_OB_GetPCROP1), (12 bytes).
    Removing stm32f4xx_flash.o(i.FLASH_OB_GetRDP), (24 bytes).
    Removing stm32f4xx_flash.o(i.FLASH_OB_GetUser), (16 bytes).
    Removing stm32f4xx_flash.o(i.FLASH_OB_GetWRP), (12 bytes).
    Removing stm32f4xx_flash.o(i.FLASH_OB_GetWRP1), (12 bytes).
    Removing stm32f4xx_flash.o(i.FLASH_OB_Launch), (32 bytes).
    Removing stm32f4xx_flash.o(i.FLASH_OB_Lock), (20 bytes).
    Removing stm32f4xx_flash.o(i.FLASH_OB_PCROP1Config), (52 bytes).
    Removing stm32f4xx_flash.o(i.FLASH_OB_PCROPConfig), (52 bytes).
    Removing stm32f4xx_flash.o(i.FLASH_OB_PCROPSelectionConfig), (24 bytes).
    Removing stm32f4xx_flash.o(i.FLASH_OB_RDPConfig), (28 bytes).
    Removing stm32f4xx_flash.o(i.FLASH_OB_Unlock), (36 bytes).
    Removing stm32f4xx_flash.o(i.FLASH_OB_UserConfig), (48 bytes).
    Removing stm32f4xx_flash.o(i.FLASH_OB_WRP1Config), (52 bytes).
    Removing stm32f4xx_flash.o(i.FLASH_OB_WRPConfig), (52 bytes).
    Removing stm32f4xx_flash.o(i.FLASH_PrefetchBufferCmd), (36 bytes).
    Removing stm32f4xx_flash.o(i.FLASH_ProgramByte), (76 bytes).
    Removing stm32f4xx_flash.o(i.FLASH_ProgramDoubleWord), (84 bytes).
    Removing stm32f4xx_flash.o(i.FLASH_ProgramHalfWord), (80 bytes).
    Removing stm32f4xx_flash.o(i.FLASH_SetLatency), (12 bytes).
    Removing stm32f4xx_gpio.o(.rev16_text), (4 bytes).
    Removing stm32f4xx_gpio.o(.revsh_text), (4 bytes).
    Removing stm32f4xx_gpio.o(i.GPIO_DeInit), (312 bytes).
    Removing stm32f4xx_gpio.o(i.GPIO_PinLockConfig), (34 bytes).
    Removing stm32f4xx_gpio.o(i.GPIO_ReadInputData), (8 bytes).
    Removing stm32f4xx_gpio.o(i.GPIO_ReadInputDataBit), (18 bytes).
    Removing stm32f4xx_gpio.o(i.GPIO_ReadOutputData), (8 bytes).
    Removing stm32f4xx_gpio.o(i.GPIO_ReadOutputDataBit), (18 bytes).
    Removing stm32f4xx_gpio.o(i.GPIO_SetBits), (4 bytes).
    Removing stm32f4xx_gpio.o(i.GPIO_StructInit), (18 bytes).
    Removing stm32f4xx_gpio.o(i.GPIO_ToggleBits), (8 bytes).
    Removing stm32f4xx_gpio.o(i.GPIO_Write), (4 bytes).
    Removing stm32f4xx_gpio.o(i.GPIO_WriteBit), (10 bytes).
    Removing stm32f4xx_rcc.o(.rev16_text), (4 bytes).
    Removing stm32f4xx_rcc.o(.revsh_text), (4 bytes).
    Removing stm32f4xx_rcc.o(i.RCC_AHB1PeriphClockLPModeCmd), (32 bytes).
    Removing stm32f4xx_rcc.o(i.RCC_AHB1PeriphResetCmd), (32 bytes).
    Removing stm32f4xx_rcc.o(i.RCC_AHB2PeriphClockLPModeCmd), (32 bytes).
    Removing stm32f4xx_rcc.o(i.RCC_AHB2PeriphResetCmd), (32 bytes).
    Removing stm32f4xx_rcc.o(i.RCC_AHB3PeriphClockCmd), (32 bytes).
    Removing stm32f4xx_rcc.o(i.RCC_AHB3PeriphClockLPModeCmd), (32 bytes).
    Removing stm32f4xx_rcc.o(i.RCC_AHB3PeriphResetCmd), (32 bytes).
    Removing stm32f4xx_rcc.o(i.RCC_APB1PeriphClockCmd), (32 bytes).
    Removing stm32f4xx_rcc.o(i.RCC_APB1PeriphClockLPModeCmd), (32 bytes).
    Removing stm32f4xx_rcc.o(i.RCC_APB2PeriphClockLPModeCmd), (32 bytes).
    Removing stm32f4xx_rcc.o(i.RCC_AdjustHSICalibrationValue), (24 bytes).
    Removing stm32f4xx_rcc.o(i.RCC_BackupResetCmd), (12 bytes).
    Removing stm32f4xx_rcc.o(i.RCC_ClearFlag), (20 bytes).
    Removing stm32f4xx_rcc.o(i.RCC_ClearITPendingBit), (12 bytes).
    Removing stm32f4xx_rcc.o(i.RCC_ClockSecuritySystemCmd), (12 bytes).
    Removing stm32f4xx_rcc.o(i.RCC_DeInit), (100 bytes).
    Removing stm32f4xx_rcc.o(i.RCC_GetFlagStatus), (64 bytes).
    Removing stm32f4xx_rcc.o(i.RCC_GetITStatus), (24 bytes).
    Removing stm32f4xx_rcc.o(i.RCC_GetSYSCLKSource), (16 bytes).
    Removing stm32f4xx_rcc.o(i.RCC_HCLKConfig), (24 bytes).
    Removing stm32f4xx_rcc.o(i.RCC_HSEConfig), (16 bytes).
    Removing stm32f4xx_rcc.o(i.RCC_HSICmd), (12 bytes).
    Removing stm32f4xx_rcc.o(i.RCC_I2SCLKConfig), (12 bytes).
    Removing stm32f4xx_rcc.o(i.RCC_ITConfig), (32 bytes).
    Removing stm32f4xx_rcc.o(i.RCC_LSEConfig), (44 bytes).
    Removing stm32f4xx_rcc.o(i.RCC_LSEModeConfig), (36 bytes).
    Removing stm32f4xx_rcc.o(i.RCC_LSICmd), (12 bytes).
    Removing stm32f4xx_rcc.o(i.RCC_LTDCCLKDivConfig), (24 bytes).
    Removing stm32f4xx_rcc.o(i.RCC_MCO1Config), (28 bytes).
    Removing stm32f4xx_rcc.o(i.RCC_MCO2Config), (28 bytes).
    Removing stm32f4xx_rcc.o(i.RCC_PCLK1Config), (24 bytes).
    Removing stm32f4xx_rcc.o(i.RCC_PCLK2Config), (24 bytes).
    Removing stm32f4xx_rcc.o(i.RCC_PLLCmd), (12 bytes).
    Removing stm32f4xx_rcc.o(i.RCC_PLLConfig), (36 bytes).
    Removing stm32f4xx_rcc.o(i.RCC_PLLI2SCmd), (12 bytes).
    Removing stm32f4xx_rcc.o(i.RCC_PLLI2SConfig), (16 bytes).
    Removing stm32f4xx_rcc.o(i.RCC_PLLSAICmd), (12 bytes).
    Removing stm32f4xx_rcc.o(i.RCC_PLLSAIConfig), (24 bytes).
    Removing stm32f4xx_rcc.o(i.RCC_RTCCLKCmd), (12 bytes).
    Removing stm32f4xx_rcc.o(i.RCC_RTCCLKConfig), (60 bytes).
    Removing stm32f4xx_rcc.o(i.RCC_SAIBlockACLKConfig), (24 bytes).
    Removing stm32f4xx_rcc.o(i.RCC_SAIBlockBCLKConfig), (24 bytes).
    Removing stm32f4xx_rcc.o(i.RCC_SAIPLLI2SClkDivConfig), (28 bytes).
    Removing stm32f4xx_rcc.o(i.RCC_SAIPLLSAIClkDivConfig), (28 bytes).
    Removing stm32f4xx_rcc.o(i.RCC_SYSCLKConfig), (24 bytes).
    Removing stm32f4xx_rcc.o(i.RCC_TIMCLKPresConfig), (12 bytes).
    Removing stm32f4xx_rcc.o(i.RCC_WaitForHSEStartUp), (56 bytes).
    Removing stm32f4xx_usart.o(.rev16_text), (4 bytes).
    Removing stm32f4xx_usart.o(.revsh_text), (4 bytes).
    Removing stm32f4xx_usart.o(i.USART_ClockInit), (32 bytes).
    Removing stm32f4xx_usart.o(i.USART_ClockStructInit), (12 bytes).
    Removing stm32f4xx_usart.o(i.USART_DMACmd), (18 bytes).
    Removing stm32f4xx_usart.o(i.USART_HalfDuplexCmd), (24 bytes).
    Removing stm32f4xx_usart.o(i.USART_IrDACmd), (24 bytes).
    Removing stm32f4xx_usart.o(i.USART_IrDAConfig), (18 bytes).
    Removing stm32f4xx_usart.o(i.USART_LINBreakDetectLengthConfig), (18 bytes).
    Removing stm32f4xx_usart.o(i.USART_LINCmd), (24 bytes).
    Removing stm32f4xx_usart.o(i.USART_OneBitMethodCmd), (24 bytes).
    Removing stm32f4xx_usart.o(i.USART_OverSampling8Cmd), (22 bytes).
    Removing stm32f4xx_usart.o(i.USART_ReceiverWakeUpCmd), (24 bytes).
    Removing stm32f4xx_usart.o(i.USART_SendBreak), (10 bytes).
    Removing stm32f4xx_usart.o(i.USART_SetAddress), (18 bytes).
    Removing stm32f4xx_usart.o(i.USART_SetGuardTime), (16 bytes).
    Removing stm32f4xx_usart.o(i.USART_SetPrescaler), (16 bytes).
    Removing stm32f4xx_usart.o(i.USART_SmartCardCmd), (24 bytes).
    Removing stm32f4xx_usart.o(i.USART_SmartCardNACKCmd), (24 bytes).
    Removing stm32f4xx_usart.o(i.USART_StructInit), (24 bytes).
    Removing stm32f4xx_usart.o(i.USART_WakeUpConfig), (18 bytes).
    Removing stm32f4xx_spi.o(.rev16_text), (4 bytes).
    Removing stm32f4xx_spi.o(.revsh_text), (4 bytes).
    Removing stm32f4xx_spi.o(i.I2S_Cmd), (24 bytes).
    Removing stm32f4xx_spi.o(i.I2S_FullDuplexConfig), (80 bytes).
    Removing stm32f4xx_spi.o(i.I2S_Init), (408 bytes).
    Removing stm32f4xx_spi.o(i.I2S_StructInit), (20 bytes).
    Removing stm32f4xx_spi.o(i.SPI_BiDirectionalLineConfig), (28 bytes).
    Removing stm32f4xx_spi.o(i.SPI_CalculateCRC), (24 bytes).
    Removing stm32f4xx_spi.o(i.SPI_Cmd), (24 bytes).
    Removing stm32f4xx_spi.o(i.SPI_DataSizeConfig), (18 bytes).
    Removing stm32f4xx_spi.o(i.SPI_GetCRC), (16 bytes).
    Removing stm32f4xx_spi.o(i.SPI_GetCRCPolynomial), (6 bytes).
    Removing stm32f4xx_spi.o(i.SPI_I2S_ClearFlag), (6 bytes).
    Removing stm32f4xx_spi.o(i.SPI_I2S_ClearITPendingBit), (20 bytes).
    Removing stm32f4xx_spi.o(i.SPI_I2S_DMACmd), (18 bytes).
    Removing stm32f4xx_spi.o(i.SPI_I2S_DeInit), (176 bytes).
    Removing stm32f4xx_spi.o(i.SPI_I2S_GetFlagStatus), (18 bytes).
    Removing stm32f4xx_spi.o(i.SPI_I2S_GetITStatus), (52 bytes).
    Removing stm32f4xx_spi.o(i.SPI_I2S_ITConfig), (32 bytes).
    Removing stm32f4xx_spi.o(i.SPI_I2S_ReceiveData), (6 bytes).
    Removing stm32f4xx_spi.o(i.SPI_I2S_SendData), (4 bytes).
    Removing stm32f4xx_spi.o(i.SPI_Init), (60 bytes).
    Removing stm32f4xx_spi.o(i.SPI_NSSInternalSoftwareConfig), (30 bytes).
    Removing stm32f4xx_spi.o(i.SPI_SSOutputCmd), (24 bytes).
    Removing stm32f4xx_spi.o(i.SPI_StructInit), (24 bytes).
    Removing stm32f4xx_spi.o(i.SPI_TIModeCmd), (24 bytes).
    Removing stm32f4xx_spi.o(i.SPI_TransmitCRC), (10 bytes).
    Removing malloc.o(.rev16_text), (4 bytes).
    Removing malloc.o(.revsh_text), (4 bytes).
    Removing malloc.o(i.mymemcpy), (26 bytes).
    Removing malloc.o(i.myrealloc), (68 bytes).
    Removing bell.o(.rev16_text), (4 bytes).
    Removing bell.o(.revsh_text), (4 bytes).
    Removing bell.o(i.BELL_Init), (2 bytes).

416 unused section(s) (total 27870 bytes) removed from the image.

==============================================================================

Image Symbol Table

    Local Symbols

    Symbol Name                              Value     Ov Type        Size  Object(Section)

    ../clib/microlib/division.c              0x00000000   Number         0  uldiv.o ABSOLUTE
    ../clib/microlib/division.c              0x00000000   Number         0  uidiv.o ABSOLUTE
    ../clib/microlib/init/entry.s            0x00000000   Number         0  entry7b.o ABSOLUTE
    ../clib/microlib/init/entry.s            0x00000000   Number         0  entry10b.o ABSOLUTE
    ../clib/microlib/init/entry.s            0x00000000   Number         0  entry.o ABSOLUTE
    ../clib/microlib/init/entry.s            0x00000000   Number         0  entry12b.o ABSOLUTE
    ../clib/microlib/init/entry.s            0x00000000   Number         0  entry8b.o ABSOLUTE
    ../clib/microlib/init/entry.s            0x00000000   Number         0  entry9a.o ABSOLUTE
    ../clib/microlib/init/entry.s            0x00000000   Number         0  entry11a.o ABSOLUTE
    ../clib/microlib/init/entry.s            0x00000000   Number         0  entry12a.o ABSOLUTE
    ../clib/microlib/init/entry.s            0x00000000   Number         0  entry11b.o ABSOLUTE
    ../clib/microlib/init/entry.s            0x00000000   Number         0  entry2.o ABSOLUTE
    ../clib/microlib/init/entry.s            0x00000000   Number         0  entry7a.o ABSOLUTE
    ../clib/microlib/init/entry.s            0x00000000   Number         0  entry9b.o ABSOLUTE
    ../clib/microlib/init/entry.s            0x00000000   Number         0  entry10a.o ABSOLUTE
    ../clib/microlib/init/entry.s            0x00000000   Number         0  entry5.o ABSOLUTE
    ../clib/microlib/init/entry.s            0x00000000   Number         0  entry8a.o ABSOLUTE
    ../clib/microlib/longlong.c              0x00000000   Number         0  llshl.o ABSOLUTE
    ../clib/microlib/longlong.c              0x00000000   Number         0  llushr.o ABSOLUTE
    ../clib/microlib/longlong.c              0x00000000   Number         0  llsshr.o ABSOLUTE
    ../clib/microlib/printf/printf.c         0x00000000   Number         0  printf7.o ABSOLUTE
    ../clib/microlib/printf/printf.c         0x00000000   Number         0  printf8.o ABSOLUTE
    ../clib/microlib/printf/printf.c         0x00000000   Number         0  printfa.o ABSOLUTE
    ../clib/microlib/printf/printf.c         0x00000000   Number         0  printf3.o ABSOLUTE
    ../clib/microlib/printf/printf.c         0x00000000   Number         0  printf2.o ABSOLUTE
    ../clib/microlib/printf/printf.c         0x00000000   Number         0  printf0.o ABSOLUTE
    ../clib/microlib/printf/printf.c         0x00000000   Number         0  printfb.o ABSOLUTE
    ../clib/microlib/printf/printf.c         0x00000000   Number         0  printf1.o ABSOLUTE
    ../clib/microlib/printf/printf.c         0x00000000   Number         0  printf4.o ABSOLUTE
    ../clib/microlib/printf/printf.c         0x00000000   Number         0  printf6.o ABSOLUTE
    ../clib/microlib/printf/printf.c         0x00000000   Number         0  printf5.o ABSOLUTE
    ../clib/microlib/printf/stubs.s          0x00000000   Number         0  stubs.o ABSOLUTE
    ../clib/microlib/string/memset.c         0x00000000   Number         0  memseta.o ABSOLUTE
    ../clib/microlib/string/strcmp.c         0x00000000   Number         0  strcmp.o ABSOLUTE
    ../clib/microlib/string/strcpy.c         0x00000000   Number         0  strcpy.o ABSOLUTE
    ../clib/microlib/stubs.s                 0x00000000   Number         0  useno.o ABSOLUTE
    ../clib/microlib/stubs.s                 0x00000000   Number         0  iusefp.o ABSOLUTE
    ../fplib/microlib/f2d.c                  0x00000000   Number         0  f2d.o ABSOLUTE
    ../fplib/microlib/fpadd.c                0x00000000   Number         0  dadd.o ABSOLUTE
    ../fplib/microlib/fpdiv.c                0x00000000   Number         0  ddiv.o ABSOLUTE
    ../fplib/microlib/fpepilogue.c           0x00000000   Number         0  depilogue.o ABSOLUTE
    ../fplib/microlib/fpfix.c                0x00000000   Number         0  dfixul.o ABSOLUTE
    ../fplib/microlib/fpmul.c                0x00000000   Number         0  dmul.o ABSOLUTE
    BSP.c                                    0x00000000   Number         0  bsp.o ABSOLUTE
    BSP.c                                    0x00000000   Number         0  bsp.o ABSOLUTE
    Bell\Bell.c                              0x00000000   Number         0  bell.o ABSOLUTE
    Bell\\Bell.c                             0x00000000   Number         0  bell.o ABSOLUTE
    FATFS\\exfuns\\exfuns.c                  0x00000000   Number         0  exfuns.o ABSOLUTE
    FATFS\\exfuns\\fattester.c               0x00000000   Number         0  fattester.o ABSOLUTE
    FATFS\\src\\diskio.c                     0x00000000   Number         0  diskio.o ABSOLUTE
    FATFS\\src\\ff.c                         0x00000000   Number         0  ff.o ABSOLUTE
    FATFS\\src\\option\\cc936.c              0x00000000   Number         0  cc936.o ABSOLUTE
    FATFS\exfuns\exfuns.c                    0x00000000   Number         0  exfuns.o ABSOLUTE
    FATFS\exfuns\fattester.c                 0x00000000   Number         0  fattester.o ABSOLUTE
    FATFS\src\diskio.c                       0x00000000   Number         0  diskio.o ABSOLUTE
    FATFS\src\ff.c                           0x00000000   Number         0  ff.o ABSOLUTE
    FATFS\src\option\cc936.c                 0x00000000   Number         0  cc936.o ABSOLUTE
    Flash\\spi.c                             0x00000000   Number         0  spi.o ABSOLUTE
    Flash\\w25qxx.c                          0x00000000   Number         0  w25qxx.o ABSOLUTE
    Flash\spi.c                              0x00000000   Number         0  spi.o ABSOLUTE
    Flash\w25qxx.c                           0x00000000   Number         0  w25qxx.o ABSOLUTE
    HMI_DRIVE\\src\\cmd_queue.c              0x00000000   Number         0  cmd_queue.o ABSOLUTE
    HMI_DRIVE\\src\\hmi_APP.c                0x00000000   Number         0  hmi_app.o ABSOLUTE
    HMI_DRIVE\\src\\hmi_driver.c             0x00000000   Number         0  hmi_driver.o ABSOLUTE
    HMI_DRIVE\src\cmd_queue.c                0x00000000   Number         0  cmd_queue.o ABSOLUTE
    HMI_DRIVE\src\hmi_APP.c                  0x00000000   Number         0  hmi_app.o ABSOLUTE
    HMI_DRIVE\src\hmi_driver.c               0x00000000   Number         0  hmi_driver.o ABSOLUTE
    IAP\\iap.c                               0x00000000   Number         0  iap.o ABSOLUTE
    IAP\iap.c                                0x00000000   Number         0  iap.o ABSOLUTE
    MAIN.c                                   0x00000000   Number         0  main.o ABSOLUTE
    MAIN.c                                   0x00000000   Number         0  main.o ABSOLUTE
    MALLOC\\malloc.c                         0x00000000   Number         0  malloc.o ABSOLUTE
    MALLOC\malloc.c                          0x00000000   Number         0  malloc.o ABSOLUTE
    STMCORE\\src\\stm32f4xx_it.c             0x00000000   Number         0  stm32f4xx_it.o ABSOLUTE
    STMCORE\\src\\system_stm32f4xx.c         0x00000000   Number         0  system_stm32f4xx.o ABSOLUTE
    STMCORE\src\startup_stm32f40_41xxx.s     0x00000000   Number         0  startup_stm32f40_41xxx.o ABSOLUTE
    STMCORE\src\stm32f4xx_it.c               0x00000000   Number         0  stm32f4xx_it.o ABSOLUTE
    STMCORE\src\system_stm32f4xx.c           0x00000000   Number         0  system_stm32f4xx.o ABSOLUTE
    STMLIBRARY\\src\\misc.c                  0x00000000   Number         0  misc.o ABSOLUTE
    STMLIBRARY\\src\\stm32f4xx_exti.c        0x00000000   Number         0  stm32f4xx_exti.o ABSOLUTE
    STMLIBRARY\\src\\stm32f4xx_flash.c       0x00000000   Number         0  stm32f4xx_flash.o ABSOLUTE
    STMLIBRARY\\src\\stm32f4xx_gpio.c        0x00000000   Number         0  stm32f4xx_gpio.o ABSOLUTE
    STMLIBRARY\\src\\stm32f4xx_rcc.c         0x00000000   Number         0  stm32f4xx_rcc.o ABSOLUTE
    STMLIBRARY\\src\\stm32f4xx_spi.c         0x00000000   Number         0  stm32f4xx_spi.o ABSOLUTE
    STMLIBRARY\\src\\stm32f4xx_usart.c       0x00000000   Number         0  stm32f4xx_usart.o ABSOLUTE
    STMLIBRARY\src\misc.c                    0x00000000   Number         0  misc.o ABSOLUTE
    STMLIBRARY\src\stm32f4xx_exti.c          0x00000000   Number         0  stm32f4xx_exti.o ABSOLUTE
    STMLIBRARY\src\stm32f4xx_flash.c         0x00000000   Number         0  stm32f4xx_flash.o ABSOLUTE
    STMLIBRARY\src\stm32f4xx_gpio.c          0x00000000   Number         0  stm32f4xx_gpio.o ABSOLUTE
    STMLIBRARY\src\stm32f4xx_rcc.c           0x00000000   Number         0  stm32f4xx_rcc.o ABSOLUTE
    STMLIBRARY\src\stm32f4xx_spi.c           0x00000000   Number         0  stm32f4xx_spi.o ABSOLUTE
    STMLIBRARY\src\stm32f4xx_usart.c         0x00000000   Number         0  stm32f4xx_usart.o ABSOLUTE
    USART\\usart.c                           0x00000000   Number         0  usart.o ABSOLUTE
    USART\usart.c                            0x00000000   Number         0  usart.o ABSOLUTE
    USB\STM32_USB_HOST_Library\Class\MSC\src\usbh_msc_bot.c 0x00000000   Number         0  usbh_msc_bot.o ABSOLUTE
    USB\STM32_USB_HOST_Library\Class\MSC\src\usbh_msc_core.c 0x00000000   Number         0  usbh_msc_core.o ABSOLUTE
    USB\STM32_USB_HOST_Library\Class\MSC\src\usbh_msc_scsi.c 0x00000000   Number         0  usbh_msc_scsi.o ABSOLUTE
    USB\STM32_USB_HOST_Library\Core\src\usbh_core.c 0x00000000   Number         0  usbh_core.o ABSOLUTE
    USB\STM32_USB_HOST_Library\Core\src\usbh_hcs.c 0x00000000   Number         0  usbh_hcs.o ABSOLUTE
    USB\STM32_USB_HOST_Library\Core\src\usbh_ioreq.c 0x00000000   Number         0  usbh_ioreq.o ABSOLUTE
    USB\STM32_USB_HOST_Library\Core\src\usbh_stdreq.c 0x00000000   Number         0  usbh_stdreq.o ABSOLUTE
    USB\STM32_USB_OTG_Driver\src\usb_core.c  0x00000000   Number         0  usb_core.o ABSOLUTE
    USB\STM32_USB_OTG_Driver\src\usb_hcd.c   0x00000000   Number         0  usb_hcd.o ABSOLUTE
    USB\STM32_USB_OTG_Driver\src\usb_hcd_int.c 0x00000000   Number         0  usb_hcd_int.o ABSOLUTE
    USB\USB_APP\usb_bsp.c                    0x00000000   Number         0  usb_bsp.o ABSOLUTE
    USB\USB_APP\usbh_usr.c                   0x00000000   Number         0  usbh_usr.o ABSOLUTE
    USB\\STM32_USB_HOST_Library\\Class\\MSC\\src\\usbh_msc_bot.c 0x00000000   Number         0  usbh_msc_bot.o ABSOLUTE
    USB\\STM32_USB_HOST_Library\\Class\\MSC\\src\\usbh_msc_core.c 0x00000000   Number         0  usbh_msc_core.o ABSOLUTE
    USB\\STM32_USB_HOST_Library\\Class\\MSC\\src\\usbh_msc_scsi.c 0x00000000   Number         0  usbh_msc_scsi.o ABSOLUTE
    USB\\STM32_USB_HOST_Library\\Core\\src\\usbh_core.c 0x00000000   Number         0  usbh_core.o ABSOLUTE
    USB\\STM32_USB_HOST_Library\\Core\\src\\usbh_hcs.c 0x00000000   Number         0  usbh_hcs.o ABSOLUTE
    USB\\STM32_USB_HOST_Library\\Core\\src\\usbh_ioreq.c 0x00000000   Number         0  usbh_ioreq.o ABSOLUTE
    USB\\STM32_USB_HOST_Library\\Core\\src\\usbh_stdreq.c 0x00000000   Number         0  usbh_stdreq.o ABSOLUTE
    USB\\STM32_USB_OTG_Driver\\src\\usb_core.c 0x00000000   Number         0  usb_core.o ABSOLUTE
    USB\\STM32_USB_OTG_Driver\\src\\usb_hcd.c 0x00000000   Number         0  usb_hcd.o ABSOLUTE
    USB\\STM32_USB_OTG_Driver\\src\\usb_hcd_int.c 0x00000000   Number         0  usb_hcd_int.o ABSOLUTE
    USB\\USB_APP\\usb_bsp.c                  0x00000000   Number         0  usb_bsp.o ABSOLUTE
    USB\\USB_APP\\usbh_usr.c                 0x00000000   Number         0  usbh_usr.o ABSOLUTE
    cdrcmple.s                               0x00000000   Number         0  cdrcmple.o ABSOLUTE
    dc.s                                     0x00000000   Number         0  dc.o ABSOLUTE
    delay\\delay.c                           0x00000000   Number         0  delay.o ABSOLUTE
    delay\\sys.c                             0x00000000   Number         0  sys.o ABSOLUTE
    delay\delay.c                            0x00000000   Number         0  delay.o ABSOLUTE
    delay\sys.c                              0x00000000   Number         0  sys.o ABSOLUTE
    handlers.s                               0x00000000   Number         0  handlers.o ABSOLUTE
    init.s                                   0x00000000   Number         0  init.o ABSOLUTE
    stmflash\\stmflash.c                     0x00000000   Number         0  stmflash.o ABSOLUTE
    stmflash\stmflash.c                      0x00000000   Number         0  stmflash.o ABSOLUTE
    RESET                                    0x08000000   Section      392  startup_stm32f40_41xxx.o(RESET)
    .ARM.Collect$$$$00000000                 0x08000188   Section        0  entry.o(.ARM.Collect$$$$00000000)
    .ARM.Collect$$$$00000001                 0x08000188   Section        4  entry2.o(.ARM.Collect$$$$00000001)
    .ARM.Collect$$$$00000004                 0x0800018c   Section        4  entry5.o(.ARM.Collect$$$$00000004)
    .ARM.Collect$$$$00000008                 0x08000190   Section        0  entry7b.o(.ARM.Collect$$$$00000008)
    .ARM.Collect$$$$0000000A                 0x08000190   Section        0  entry8b.o(.ARM.Collect$$$$0000000A)
    .ARM.Collect$$$$0000000B                 0x08000190   Section        8  entry9a.o(.ARM.Collect$$$$0000000B)
    .ARM.Collect$$$$0000000E                 0x08000198   Section        4  entry12b.o(.ARM.Collect$$$$0000000E)
    .ARM.Collect$$$$0000000F                 0x0800019c   Section        0  entry10a.o(.ARM.Collect$$$$0000000F)
    .ARM.Collect$$$$00000011                 0x0800019c   Section        0  entry11a.o(.ARM.Collect$$$$00000011)
    .ARM.Collect$$$$00002712                 0x0800019c   Section        4  entry2.o(.ARM.Collect$$$$00002712)
    __lit__00000000                          0x0800019c   Data           4  entry2.o(.ARM.Collect$$$$00002712)
    .emb_text                                0x080001a0   Section       16  sys.o(.emb_text)
    $v0                                      0x080001a0   Number         0  sys.o(.emb_text)
    .text                                    0x080001b0   Section       36  startup_stm32f40_41xxx.o(.text)
    $v0                                      0x080001b0   Number         0  startup_stm32f40_41xxx.o(.text)
    .text                                    0x080001d4   Section        0  f2d.o(.text)
    .text                                    0x080001fa   Section        0  uidiv.o(.text)
    .text                                    0x08000226   Section        0  uldiv.o(.text)
    .text                                    0x08000288   Section        0  dadd.o(.text)
    .text                                    0x08000288   Section        0  iusefp.o(.text)
    .text                                    0x080003d6   Section        0  dmul.o(.text)
    .text                                    0x080004ba   Section        0  ddiv.o(.text)
    .text                                    0x08000598   Section        0  dfixul.o(.text)
    .text                                    0x080005c8   Section       48  cdrcmple.o(.text)
    .text                                    0x080005f8   Section       36  init.o(.text)
    .text                                    0x0800061c   Section        0  llshl.o(.text)
    .text                                    0x0800063a   Section        0  llushr.o(.text)
    .text                                    0x0800065a   Section        0  llsshr.o(.text)
    .text                                    0x0800067e   Section        0  depilogue.o(.text)
    i.BELL_Work                              0x08000738   Section        0  bell.o(i.BELL_Work)
    i.BSP_Init                               0x0800073c   Section        0  bsp.o(i.BSP_Init)
    i.BeginUpdateHMI                         0x0800087c   Section        0  hmi_driver.o(i.BeginUpdateHMI)
    i.BusFault_Handler                       0x0800089c   Section        0  stm32f4xx_it.o(i.BusFault_Handler)
    i.CheckHMIUpdateFiles                    0x080008a4   Section        0  usbh_usr.o(i.CheckHMIUpdateFiles)
    i.Check_HMI_Image_Index                  0x0800098c   Section        0  usbh_usr.o(i.Check_HMI_Image_Index)
    i.DebugMon_Handler                       0x08000a7c   Section        0  stm32f4xx_it.o(i.DebugMon_Handler)
    i.EndUpdateHMI                           0x08000a80   Section        0  hmi_driver.o(i.EndUpdateHMI)
    i.FLASH_DataCacheCmd                     0x08000a98   Section        0  stm32f4xx_flash.o(i.FLASH_DataCacheCmd)
    i.FLASH_EraseSector                      0x08000abc   Section        0  stm32f4xx_flash.o(i.FLASH_EraseSector)
    i.FLASH_GetStatus                        0x08000b44   Section        0  stm32f4xx_flash.o(i.FLASH_GetStatus)
    i.FLASH_Lock                             0x08000b98   Section        0  stm32f4xx_flash.o(i.FLASH_Lock)
    i.FLASH_ProgramWord                      0x08000bac   Section        0  stm32f4xx_flash.o(i.FLASH_ProgramWord)
    i.FLASH_Unlock                           0x08000bfc   Section        0  stm32f4xx_flash.o(i.FLASH_Unlock)
    i.FLASH_WaitForLastOperation             0x08000c20   Section        0  stm32f4xx_flash.o(i.FLASH_WaitForLastOperation)
    i.GOIO_OUT_Init                          0x08000c44   Section        0  bsp.o(i.GOIO_OUT_Init)
    i.GPIO_Init                              0x08000c80   Section        0  stm32f4xx_gpio.o(i.GPIO_Init)
    i.GPIO_PinAFConfig                       0x08000d10   Section        0  stm32f4xx_gpio.o(i.GPIO_PinAFConfig)
    i.GPIO_ResetBits                         0x08000d56   Section        0  stm32f4xx_gpio.o(i.GPIO_ResetBits)
    i.HCD_GetCurrentFrame                    0x08000d5a   Section        0  usb_hcd.o(i.HCD_GetCurrentFrame)
    i.HCD_GetCurrentSpeed                    0x08000d64   Section        0  usb_hcd.o(i.HCD_GetCurrentSpeed)
    i.HCD_GetURB_State                       0x08000d78   Section        0  usb_hcd.o(i.HCD_GetURB_State)
    i.HCD_GetXferCnt                         0x08000d82   Section        0  usb_hcd.o(i.HCD_GetXferCnt)
    i.HCD_Init                               0x08000d8e   Section        0  usb_hcd.o(i.HCD_Init)
    i.HCD_IsDeviceConnected                  0x08000dee   Section        0  usb_hcd.o(i.HCD_IsDeviceConnected)
    i.HCD_ResetPort                          0x08000df6   Section        0  usb_hcd.o(i.HCD_ResetPort)
    i.HCD_SubmitRequest                      0x08000e04   Section        0  usb_hcd.o(i.HCD_SubmitRequest)
    i.HMI_SendSingleChar                     0x08000e24   Section        0  usart.o(i.HMI_SendSingleChar)
    i.HMI_USART_Init                         0x08000e54   Section        0  usart.o(i.HMI_USART_Init)
    i.HardFault_Handler                      0x08000f08   Section        0  stm32f4xx_it.o(i.HardFault_Handler)
    i.MemManage_Handler                      0x08000f10   Section        0  stm32f4xx_it.o(i.MemManage_Handler)
    i.NMI_Handler                            0x08000f18   Section        0  stm32f4xx_it.o(i.NMI_Handler)
    i.NVIC_Init                              0x08000f1c   Section        0  misc.o(i.NVIC_Init)
    i.NVIC_PriorityGroupConfig               0x08000f94   Section        0  misc.o(i.NVIC_PriorityGroupConfig)
    i.NVIC_SetVectorTable                    0x08000fa8   Section        0  misc.o(i.NVIC_SetVectorTable)
    i.NVIC_SystemReset                       0x08000fbc   Section        0  stm32f4xx_it.o(i.NVIC_SystemReset)
    NVIC_SystemReset                         0x08000fbd   Thumb Code    30  stm32f4xx_it.o(i.NVIC_SystemReset)
    i.NotifyButton                           0x08000fe4   Section        0  hmi_app.o(i.NotifyButton)
    i.NotifyScreen                           0x08001020   Section        0  hmi_app.o(i.NotifyScreen)
    i.OTG_FS_IRQHandler                      0x08001034   Section        0  usbh_usr.o(i.OTG_FS_IRQHandler)
    i.ProcessMessage                         0x08001044   Section        0  hmi_app.o(i.ProcessMessage)
    i.RCC_AHB1PeriphClockCmd                 0x08001090   Section        0  stm32f4xx_rcc.o(i.RCC_AHB1PeriphClockCmd)
    i.RCC_AHB2PeriphClockCmd                 0x080010b0   Section        0  stm32f4xx_rcc.o(i.RCC_AHB2PeriphClockCmd)
    i.RCC_APB1PeriphResetCmd                 0x080010d0   Section        0  stm32f4xx_rcc.o(i.RCC_APB1PeriphResetCmd)
    i.RCC_APB2PeriphClockCmd                 0x080010f0   Section        0  stm32f4xx_rcc.o(i.RCC_APB2PeriphClockCmd)
    i.RCC_APB2PeriphResetCmd                 0x08001110   Section        0  stm32f4xx_rcc.o(i.RCC_APB2PeriphResetCmd)
    i.RCC_GetClocksFreq                      0x08001130   Section        0  stm32f4xx_rcc.o(i.RCC_GetClocksFreq)
    i.RSRT                                   0x08001218   Section        0  hmi_driver.o(i.RSRT)
    i.ReadImgIdx                             0x08001260   Section        0  hmi_driver.o(i.ReadImgIdx)
    i.STMFLASH_GetFlashSector                0x08001288   Section        0  stmflash.o(i.STMFLASH_GetFlashSector)
    i.STMFLASH_ReadWord                      0x08001328   Section        0  stmflash.o(i.STMFLASH_ReadWord)
    i.STMFLASH_Write                         0x08001330   Section        0  stmflash.o(i.STMFLASH_Write)
    i.SendFiledData                          0x080013c8   Section        0  hmi_driver.o(i.SendFiledData)
    i.SendNU8                                0x080013ec   Section        0  hmi_driver.o(i.SendNU8)
    i.SetProgressValue                       0x08001406   Section        0  hmi_driver.o(i.SetProgressValue)
    i.SetScreen                              0x0800146e   Section        0  hmi_driver.o(i.SetScreen)
    i.SetSysClock                            0x080014ac   Section        0  system_stm32f4xx.o(i.SetSysClock)
    SetSysClock                              0x080014ad   Thumb Code   220  system_stm32f4xx.o(i.SetSysClock)
    i.SysTick_CLKSourceConfig                0x08001598   Section        0  misc.o(i.SysTick_CLKSourceConfig)
    i.SystemInit                             0x080015c0   Section        0  system_stm32f4xx.o(i.SystemInit)
    i.USART1_IRQHandler                      0x08001628   Section        0  usart.o(i.USART1_IRQHandler)
    i.USART_ClearFlag                        0x08001694   Section        0  stm32f4xx_usart.o(i.USART_ClearFlag)
    i.USART_ClearITPendingBit                0x080016a6   Section        0  stm32f4xx_usart.o(i.USART_ClearITPendingBit)
    i.USART_Cmd                              0x080016c4   Section        0  stm32f4xx_usart.o(i.USART_Cmd)
    i.USART_DeInit                           0x080016dc   Section        0  stm32f4xx_usart.o(i.USART_DeInit)
    i.USART_GetFlagStatus                    0x080017cc   Section        0  stm32f4xx_usart.o(i.USART_GetFlagStatus)
    i.USART_GetITStatus                      0x080017e6   Section        0  stm32f4xx_usart.o(i.USART_GetITStatus)
    i.USART_ITConfig                         0x0800183a   Section        0  stm32f4xx_usart.o(i.USART_ITConfig)
    i.USART_Init                             0x08001884   Section        0  stm32f4xx_usart.o(i.USART_Init)
    i.USART_ReceiveData                      0x08001958   Section        0  stm32f4xx_usart.o(i.USART_ReceiveData)
    i.USART_SendData                         0x08001962   Section        0  stm32f4xx_usart.o(i.USART_SendData)
    i.USBH_Alloc_Channel                     0x0800196a   Section        0  usbh_hcs.o(i.USBH_Alloc_Channel)
    i.USBH_BulkReceiveData                   0x08001990   Section        0  usbh_ioreq.o(i.USBH_BulkReceiveData)
    i.USBH_BulkSendData                      0x080019f0   Section        0  usbh_ioreq.o(i.USBH_BulkSendData)
    i.USBH_ClrFeature                        0x08001a4e   Section        0  usbh_stdreq.o(i.USBH_ClrFeature)
    i.USBH_Connected                         0x08001a9a   Section        0  usbh_core.o(i.USBH_Connected)
    i.USBH_CtlReceiveData                    0x08001aa6   Section        0  usbh_ioreq.o(i.USBH_CtlReceiveData)
    i.USBH_CtlReq                            0x08001aec   Section        0  usbh_ioreq.o(i.USBH_CtlReq)
    i.USBH_CtlSendData                       0x08001b50   Section        0  usbh_ioreq.o(i.USBH_CtlSendData)
    i.USBH_CtlSendSetup                      0x08001bbe   Section        0  usbh_ioreq.o(i.USBH_CtlSendSetup)
    i.USBH_DeAllocate_AllChannel             0x08001c00   Section        0  usbh_hcs.o(i.USBH_DeAllocate_AllChannel)
    i.USBH_DeInit                            0x08001c1c   Section        0  usbh_core.o(i.USBH_DeInit)
    i.USBH_Disconnected                      0x08001c56   Section        0  usbh_core.o(i.USBH_Disconnected)
    i.USBH_ErrorHandle                       0x08001c62   Section        0  usbh_core.o(i.USBH_ErrorHandle)
    i.USBH_Free_Channel                      0x08001c90   Section        0  usbh_hcs.o(i.USBH_Free_Channel)
    i.USBH_GetDescriptor                     0x08001cae   Section        0  usbh_stdreq.o(i.USBH_GetDescriptor)
    i.USBH_GetFreeChannel                    0x08001cf2   Section        0  usbh_hcs.o(i.USBH_GetFreeChannel)
    USBH_GetFreeChannel                      0x08001cf3   Thumb Code    40  usbh_hcs.o(i.USBH_GetFreeChannel)
    i.USBH_GetNextDesc                       0x08001d1a   Section        0  usbh_stdreq.o(i.USBH_GetNextDesc)
    i.USBH_Get_CfgDesc                       0x08001d2c   Section        0  usbh_stdreq.o(i.USBH_Get_CfgDesc)
    i.USBH_Get_DevDesc                       0x08001d88   Section        0  usbh_stdreq.o(i.USBH_Get_DevDesc)
    i.USBH_Get_StringDesc                    0x08001dc0   Section        0  usbh_stdreq.o(i.USBH_Get_StringDesc)
    i.USBH_HandleControl                     0x08001dfc   Section        0  usbh_core.o(i.USBH_HandleControl)
    i.USBH_HandleEnum                        0x08002020   Section        0  usbh_core.o(i.USBH_HandleEnum)
    USBH_HandleEnum                          0x08002021   Thumb Code   472  usbh_core.o(i.USBH_HandleEnum)
    i.USBH_Init                              0x080021fc   Section        0  usbh_core.o(i.USBH_Init)
    i.USBH_MSC_BOTReset                      0x08002240   Section        0  usbh_msc_core.o(i.USBH_MSC_BOTReset)
    USBH_MSC_BOTReset                        0x08002241   Thumb Code    36  usbh_msc_core.o(i.USBH_MSC_BOTReset)
    i.USBH_MSC_BOT_Abort                     0x08002264   Section        0  usbh_msc_bot.o(i.USBH_MSC_BOT_Abort)
    i.USBH_MSC_ClassRequest                  0x080022c4   Section        0  usbh_msc_core.o(i.USBH_MSC_ClassRequest)
    USBH_MSC_ClassRequest                    0x080022c5   Thumb Code    14  usbh_msc_core.o(i.USBH_MSC_ClassRequest)
    i.USBH_MSC_DecodeCSW                     0x080022d8   Section        0  usbh_msc_bot.o(i.USBH_MSC_DecodeCSW)
    i.USBH_MSC_ErrorHandle                   0x08002358   Section        0  usbh_msc_core.o(i.USBH_MSC_ErrorHandle)
    i.USBH_MSC_GETMaxLUN                     0x0800239c   Section        0  usbh_msc_core.o(i.USBH_MSC_GETMaxLUN)
    USBH_MSC_GETMaxLUN                       0x0800239d   Thumb Code    38  usbh_msc_core.o(i.USBH_MSC_GETMaxLUN)
    i.USBH_MSC_Handle                        0x080023c8   Section        0  usbh_msc_core.o(i.USBH_MSC_Handle)
    USBH_MSC_Handle                          0x080023c9   Thumb Code   406  usbh_msc_core.o(i.USBH_MSC_Handle)
    i.USBH_MSC_HandleBOTXfer                 0x08002570   Section        0  usbh_msc_bot.o(i.USBH_MSC_HandleBOTXfer)
    i.USBH_MSC_Init                          0x080028c0   Section        0  usbh_msc_bot.o(i.USBH_MSC_Init)
    i.USBH_MSC_InterfaceDeInit               0x08002904   Section        0  usbh_msc_core.o(i.USBH_MSC_InterfaceDeInit)
    USBH_MSC_InterfaceDeInit                 0x08002905   Thumb Code    72  usbh_msc_core.o(i.USBH_MSC_InterfaceDeInit)
    i.USBH_MSC_InterfaceInit                 0x08002950   Section        0  usbh_msc_core.o(i.USBH_MSC_InterfaceInit)
    USBH_MSC_InterfaceInit                   0x08002951   Thumb Code   202  usbh_msc_core.o(i.USBH_MSC_InterfaceInit)
    i.USBH_MSC_ModeSense6                    0x08002a20   Section        0  usbh_msc_scsi.o(i.USBH_MSC_ModeSense6)
    i.USBH_MSC_Read10                        0x08002af0   Section        0  usbh_msc_scsi.o(i.USBH_MSC_Read10)
    i.USBH_MSC_ReadCapacity10                0x08002bf0   Section        0  usbh_msc_scsi.o(i.USBH_MSC_ReadCapacity10)
    i.USBH_MSC_RequestSense                  0x08002ccc   Section        0  usbh_msc_scsi.o(i.USBH_MSC_RequestSense)
    i.USBH_MSC_TestUnitReady                 0x08002dac   Section        0  usbh_msc_scsi.o(i.USBH_MSC_TestUnitReady)
    i.USBH_MSC_Write10                       0x08002e5c   Section        0  usbh_msc_scsi.o(i.USBH_MSC_Write10)
    i.USBH_Modify_Channel                    0x08002f40   Section        0  usbh_hcs.o(i.USBH_Modify_Channel)
    i.USBH_OTG_ISR_Handler                   0x08002fa4   Section        0  usb_hcd_int.o(i.USBH_OTG_ISR_Handler)
    i.USBH_Open_Channel                      0x0800304c   Section        0  usbh_hcs.o(i.USBH_Open_Channel)
    i.USBH_ParseCfgDesc                      0x080030e8   Section        0  usbh_stdreq.o(i.USBH_ParseCfgDesc)
    USBH_ParseCfgDesc                        0x080030e9   Thumb Code   274  usbh_stdreq.o(i.USBH_ParseCfgDesc)
    i.USBH_ParseDevDesc                      0x08003204   Section        0  usbh_stdreq.o(i.USBH_ParseDevDesc)
    USBH_ParseDevDesc                        0x08003205   Thumb Code    88  usbh_stdreq.o(i.USBH_ParseDevDesc)
    i.USBH_ParseEPDesc                       0x0800325c   Section        0  usbh_stdreq.o(i.USBH_ParseEPDesc)
    USBH_ParseEPDesc                         0x0800325d   Thumb Code    32  usbh_stdreq.o(i.USBH_ParseEPDesc)
    i.USBH_ParseInterfaceDesc                0x0800327c   Section        0  usbh_stdreq.o(i.USBH_ParseInterfaceDesc)
    USBH_ParseInterfaceDesc                  0x0800327d   Thumb Code    38  usbh_stdreq.o(i.USBH_ParseInterfaceDesc)
    i.USBH_ParseStringDesc                   0x080032a2   Section        0  usbh_stdreq.o(i.USBH_ParseStringDesc)
    USBH_ParseStringDesc                     0x080032a3   Thumb Code    54  usbh_stdreq.o(i.USBH_ParseStringDesc)
    i.USBH_Process                           0x080032d8   Section        0  usbh_core.o(i.USBH_Process)
    i.USBH_SOF                               0x08003470   Section        0  usbh_core.o(i.USBH_SOF)
    i.USBH_SetAddress                        0x08003476   Section        0  usbh_stdreq.o(i.USBH_SetAddress)
    i.USBH_SetCfg                            0x0800349c   Section        0  usbh_stdreq.o(i.USBH_SetCfg)
    i.USBH_SubmitSetupRequest                0x080034c2   Section        0  usbh_ioreq.o(i.USBH_SubmitSetupRequest)
    USBH_SubmitSetupRequest                  0x080034c3   Thumb Code    24  usbh_ioreq.o(i.USBH_SubmitSetupRequest)
    i.USBH_UDISK_Read                        0x080034dc   Section        0  usbh_usr.o(i.USBH_UDISK_Read)
    i.USBH_UDISK_Status                      0x0800353c   Section        0  usbh_usr.o(i.USBH_UDISK_Status)
    i.USBH_UDISK_Write                       0x0800354c   Section        0  usbh_usr.o(i.USBH_UDISK_Write)
    i.USBH_USR_Configuration_DescAvailable   0x080035ac   Section        0  usbh_usr.o(i.USBH_USR_Configuration_DescAvailable)
    i.USBH_USR_DeInit                        0x080035bc   Section        0  usbh_usr.o(i.USBH_USR_DeInit)
    i.USBH_USR_DeviceAddressAssigned         0x080035c8   Section        0  usbh_usr.o(i.USBH_USR_DeviceAddressAssigned)
    i.USBH_USR_DeviceAttached                0x080035ca   Section        0  usbh_usr.o(i.USBH_USR_DeviceAttached)
    i.USBH_USR_DeviceDisconnected            0x080035cc   Section        0  usbh_usr.o(i.USBH_USR_DeviceDisconnected)
    i.USBH_USR_DeviceNotSupported            0x080035ce   Section        0  usbh_usr.o(i.USBH_USR_DeviceNotSupported)
    i.USBH_USR_DeviceSpeedDetected           0x080035d0   Section        0  usbh_usr.o(i.USBH_USR_DeviceSpeedDetected)
    i.USBH_USR_Device_DescAvailable          0x080035da   Section        0  usbh_usr.o(i.USBH_USR_Device_DescAvailable)
    i.USBH_USR_EnumerationDone               0x080035dc   Section        0  usbh_usr.o(i.USBH_USR_EnumerationDone)
    i.USBH_USR_Init                          0x080035fc   Section        0  usbh_usr.o(i.USBH_USR_Init)
    i.USBH_USR_MSC_Application               0x08003600   Section        0  usbh_usr.o(i.USBH_USR_MSC_Application)
    i.USBH_USR_Manufacturer_String           0x08003638   Section        0  usbh_usr.o(i.USBH_USR_Manufacturer_String)
    i.USBH_USR_OverCurrentDetected           0x0800363a   Section        0  usbh_usr.o(i.USBH_USR_OverCurrentDetected)
    i.USBH_USR_Product_String                0x0800363c   Section        0  usbh_usr.o(i.USBH_USR_Product_String)
    i.USBH_USR_ResetDevice                   0x0800363e   Section        0  usbh_usr.o(i.USBH_USR_ResetDevice)
    i.USBH_USR_SerialNum_String              0x08003640   Section        0  usbh_usr.o(i.USBH_USR_SerialNum_String)
    i.USBH_USR_UnrecoveredError              0x08003642   Section        0  usbh_usr.o(i.USBH_USR_UnrecoveredError)
    i.USBH_USR_UserInput                     0x08003644   Section        0  usbh_usr.o(i.USBH_USR_UserInput)
    i.USB_OTG_BSP_ConfigVBUS                 0x08003648   Section        0  usb_bsp.o(i.USB_OTG_BSP_ConfigVBUS)
    i.USB_OTG_BSP_DriveVBUS                  0x0800364a   Section        0  usb_bsp.o(i.USB_OTG_BSP_DriveVBUS)
    i.USB_OTG_BSP_EnableInterrupt            0x0800364c   Section        0  usb_bsp.o(i.USB_OTG_BSP_EnableInterrupt)
    i.USB_OTG_BSP_Init                       0x08003670   Section        0  usb_bsp.o(i.USB_OTG_BSP_Init)
    i.USB_OTG_BSP_mDelay                     0x080036c4   Section        0  usb_bsp.o(i.USB_OTG_BSP_mDelay)
    i.USB_OTG_BSP_uDelay                     0x080036d0   Section        0  usb_bsp.o(i.USB_OTG_BSP_uDelay)
    i.USB_OTG_CoreInit                       0x080036dc   Section        0  usb_core.o(i.USB_OTG_CoreInit)
    i.USB_OTG_CoreInitHost                   0x08003802   Section        0  usb_core.o(i.USB_OTG_CoreInitHost)
    i.USB_OTG_CoreReset                      0x080038d8   Section        0  usb_core.o(i.USB_OTG_CoreReset)
    USB_OTG_CoreReset                        0x080038d9   Thumb Code   108  usb_core.o(i.USB_OTG_CoreReset)
    i.USB_OTG_DisableGlobalInt               0x08003948   Section        0  usb_core.o(i.USB_OTG_DisableGlobalInt)
    i.USB_OTG_DriveVbus                      0x0800396a   Section        0  usb_core.o(i.USB_OTG_DriveVbus)
    i.USB_OTG_EnableCommonInt                0x080039c6   Section        0  usb_core.o(i.USB_OTG_EnableCommonInt)
    USB_OTG_EnableCommonInt                  0x080039c7   Thumb Code    52  usb_core.o(i.USB_OTG_EnableCommonInt)
    i.USB_OTG_EnableGlobalInt                0x080039fa   Section        0  usb_core.o(i.USB_OTG_EnableGlobalInt)
    i.USB_OTG_EnableHostInt                  0x08003a1c   Section        0  usb_core.o(i.USB_OTG_EnableHostInt)
    i.USB_OTG_FlushRxFifo                    0x08003a90   Section        0  usb_core.o(i.USB_OTG_FlushRxFifo)
    i.USB_OTG_FlushTxFifo                    0x08003adc   Section        0  usb_core.o(i.USB_OTG_FlushTxFifo)
    i.USB_OTG_GetMode                        0x08003b30   Section        0  usb_core.o(i.USB_OTG_GetMode)
    i.USB_OTG_HC_DoPing                      0x08003b3c   Section        0  usb_core.o(i.USB_OTG_HC_DoPing)
    i.USB_OTG_HC_Halt                        0x08003b96   Section        0  usb_core.o(i.USB_OTG_HC_Halt)
    i.USB_OTG_HC_Init                        0x08003c18   Section        0  usb_core.o(i.USB_OTG_HC_Init)
    i.USB_OTG_HC_StartXfer                   0x08003e50   Section        0  usb_core.o(i.USB_OTG_HC_StartXfer)
    i.USB_OTG_InitFSLSPClkSel                0x08004046   Section        0  usb_core.o(i.USB_OTG_InitFSLSPClkSel)
    i.USB_OTG_IsEvenFrame                    0x0800405e   Section        0  usb_core.o(i.USB_OTG_IsEvenFrame)
    i.USB_OTG_IsHostMode                     0x0800406e   Section        0  usb_core.o(i.USB_OTG_IsHostMode)
    i.USB_OTG_ReadCoreItr                    0x08004082   Section        0  usb_core.o(i.USB_OTG_ReadCoreItr)
    i.USB_OTG_ReadHPRT0                      0x08004092   Section        0  usb_core.o(i.USB_OTG_ReadHPRT0)
    i.USB_OTG_ReadHostAllChannels_intr       0x080040c2   Section        0  usb_core.o(i.USB_OTG_ReadHostAllChannels_intr)
    i.USB_OTG_ReadPacket                     0x080040ca   Section        0  usb_core.o(i.USB_OTG_ReadPacket)
    i.USB_OTG_ResetPort                      0x080040f2   Section        0  usb_core.o(i.USB_OTG_ResetPort)
    i.USB_OTG_SelectCore                     0x08004134   Section        0  usb_core.o(i.USB_OTG_SelectCore)
    i.USB_OTG_SetCurrentMode                 0x08004204   Section        0  usb_core.o(i.USB_OTG_SetCurrentMode)
    i.USB_OTG_USBH_handle_Disconnect_ISR     0x08004254   Section        0  usb_hcd_int.o(i.USB_OTG_USBH_handle_Disconnect_ISR)
    USB_OTG_USBH_handle_Disconnect_ISR       0x08004255   Thumb Code    40  usb_hcd_int.o(i.USB_OTG_USBH_handle_Disconnect_ISR)
    i.USB_OTG_USBH_handle_IncompletePeriodicXfer_ISR 0x08004280   Section        0  usb_hcd_int.o(i.USB_OTG_USBH_handle_IncompletePeriodicXfer_ISR)
    USB_OTG_USBH_handle_IncompletePeriodicXfer_ISR 0x08004281   Thumb Code    70  usb_hcd_int.o(i.USB_OTG_USBH_handle_IncompletePeriodicXfer_ISR)
    i.USB_OTG_USBH_handle_hc_ISR             0x080042c6   Section        0  usb_hcd_int.o(i.USB_OTG_USBH_handle_hc_ISR)
    USB_OTG_USBH_handle_hc_ISR               0x080042c7   Thumb Code    86  usb_hcd_int.o(i.USB_OTG_USBH_handle_hc_ISR)
    i.USB_OTG_USBH_handle_hc_n_In_ISR        0x0800431c   Section        0  usb_hcd_int.o(i.USB_OTG_USBH_handle_hc_n_In_ISR)
    USB_OTG_USBH_handle_hc_n_In_ISR          0x0800431d   Thumb Code  1066  usb_hcd_int.o(i.USB_OTG_USBH_handle_hc_n_In_ISR)
    i.USB_OTG_USBH_handle_hc_n_Out_ISR       0x08004746   Section        0  usb_hcd_int.o(i.USB_OTG_USBH_handle_hc_n_Out_ISR)
    USB_OTG_USBH_handle_hc_n_Out_ISR         0x08004747   Thumb Code   976  usb_hcd_int.o(i.USB_OTG_USBH_handle_hc_n_Out_ISR)
    i.USB_OTG_USBH_handle_nptxfempty_ISR     0x08004b16   Section        0  usb_hcd_int.o(i.USB_OTG_USBH_handle_nptxfempty_ISR)
    USB_OTG_USBH_handle_nptxfempty_ISR       0x08004b17   Thumb Code   302  usb_hcd_int.o(i.USB_OTG_USBH_handle_nptxfempty_ISR)
    i.USB_OTG_USBH_handle_port_ISR           0x08004c44   Section        0  usb_hcd_int.o(i.USB_OTG_USBH_handle_port_ISR)
    USB_OTG_USBH_handle_port_ISR             0x08004c45   Thumb Code   282  usb_hcd_int.o(i.USB_OTG_USBH_handle_port_ISR)
    i.USB_OTG_USBH_handle_ptxfempty_ISR      0x08004d64   Section        0  usb_hcd_int.o(i.USB_OTG_USBH_handle_ptxfempty_ISR)
    USB_OTG_USBH_handle_ptxfempty_ISR        0x08004d65   Thumb Code   302  usb_hcd_int.o(i.USB_OTG_USBH_handle_ptxfempty_ISR)
    i.USB_OTG_USBH_handle_rx_qlvl_ISR        0x08004e92   Section        0  usb_hcd_int.o(i.USB_OTG_USBH_handle_rx_qlvl_ISR)
    USB_OTG_USBH_handle_rx_qlvl_ISR          0x08004e93   Thumb Code   356  usb_hcd_int.o(i.USB_OTG_USBH_handle_rx_qlvl_ISR)
    i.USB_OTG_USBH_handle_sof_ISR            0x08004ff8   Section        0  usb_hcd_int.o(i.USB_OTG_USBH_handle_sof_ISR)
    USB_OTG_USBH_handle_sof_ISR              0x08004ff9   Thumb Code    38  usb_hcd_int.o(i.USB_OTG_USBH_handle_sof_ISR)
    i.USB_OTG_WritePacket                    0x08005024   Section        0  usb_core.o(i.USB_OTG_WritePacket)
    i.USH_User_App                           0x08005064   Section        0  usbh_usr.o(i.USH_User_App)
    i.UpdateHMI                              0x080052c0   Section        0  usbh_usr.o(i.UpdateHMI)
    i.UpdateHMIByFileIndex                   0x08005488   Section        0  usbh_usr.o(i.UpdateHMIByFileIndex)
    i.UpdateHMI_Image                        0x08005778   Section        0  usbh_usr.o(i.UpdateHMI_Image)
    i.UsageFault_Handler                     0x08005ac0   Section        0  stm32f4xx_it.o(i.UsageFault_Handler)
    i.__0printf                              0x08005ac8   Section        0  printfa.o(i.__0printf)
    i.__0sprintf                             0x08005ae8   Section        0  printfa.o(i.__0sprintf)
    i.__scatterload_copy                     0x08005b10   Section       14  handlers.o(i.__scatterload_copy)
    i.__scatterload_null                     0x08005b1e   Section        2  handlers.o(i.__scatterload_null)
    i.__scatterload_zeroinit                 0x08005b20   Section       14  handlers.o(i.__scatterload_zeroinit)
    i._fp_digits                             0x08005b30   Section        0  printfa.o(i._fp_digits)
    _fp_digits                               0x08005b31   Thumb Code   366  printfa.o(i._fp_digits)
    i._printf_core                           0x08005cb4   Section        0  printfa.o(i._printf_core)
    _printf_core                             0x08005cb5   Thumb Code  1704  printfa.o(i._printf_core)
    i._printf_post_padding                   0x08006368   Section        0  printfa.o(i._printf_post_padding)
    _printf_post_padding                     0x08006369   Thumb Code    36  printfa.o(i._printf_post_padding)
    i._printf_pre_padding                    0x0800638c   Section        0  printfa.o(i._printf_pre_padding)
    _printf_pre_padding                      0x0800638d   Thumb Code    46  printfa.o(i._printf_pre_padding)
    i._sputc                                 0x080063ba   Section        0  printfa.o(i._sputc)
    _sputc                                   0x080063bb   Thumb Code    10  printfa.o(i._sputc)
    i.check_fs                               0x080063c4   Section        0  ff.o(i.check_fs)
    check_fs                                 0x080063c5   Thumb Code   140  ff.o(i.check_fs)
    i.chk_chr                                0x08006454   Section        0  ff.o(i.chk_chr)
    chk_chr                                  0x08006455   Thumb Code    20  ff.o(i.chk_chr)
    i.clmt_clust                             0x08006468   Section        0  ff.o(i.clmt_clust)
    clmt_clust                               0x08006469   Thumb Code    56  ff.o(i.clmt_clust)
    i.clust2sect                             0x080064a0   Section        0  ff.o(i.clust2sect)
    i.cmp_lfn                                0x080064bc   Section        0  ff.o(i.cmp_lfn)
    cmp_lfn                                  0x080064bd   Thumb Code   138  ff.o(i.cmp_lfn)
    i.create_chain                           0x0800654c   Section        0  ff.o(i.create_chain)
    create_chain                             0x0800654d   Thumb Code   214  ff.o(i.create_chain)
    i.create_name                            0x08006624   Section        0  ff.o(i.create_name)
    create_name                              0x08006625   Thumb Code   604  ff.o(i.create_name)
    i.delay_init                             0x08006894   Section        0  delay.o(i.delay_init)
    i.delay_ms                               0x080068d0   Section        0  delay.o(i.delay_ms)
    i.delay_us                               0x08006908   Section        0  delay.o(i.delay_us)
    i.delay_xms                              0x08006954   Section        0  delay.o(i.delay_xms)
    i.dir_alloc                              0x080069a0   Section        0  ff.o(i.dir_alloc)
    dir_alloc                                0x080069a1   Thumb Code    92  ff.o(i.dir_alloc)
    i.dir_find                               0x080069fc   Section        0  ff.o(i.dir_find)
    dir_find                                 0x080069fd   Thumb Code   234  ff.o(i.dir_find)
    i.dir_next                               0x08006ae6   Section        0  ff.o(i.dir_next)
    dir_next                                 0x08006ae7   Thumb Code   316  ff.o(i.dir_next)
    i.dir_register                           0x08006c22   Section        0  ff.o(i.dir_register)
    dir_register                             0x08006c23   Thumb Code   298  ff.o(i.dir_register)
    i.dir_sdi                                0x08006d4c   Section        0  ff.o(i.dir_sdi)
    i.disk_initialize                        0x08006e14   Section        0  diskio.o(i.disk_initialize)
    i.disk_ioctl                             0x08006e48   Section        0  diskio.o(i.disk_ioctl)
    i.disk_read                              0x08006efc   Section        0  diskio.o(i.disk_read)
    i.disk_status                            0x08006f48   Section        0  diskio.o(i.disk_status)
    i.disk_write                             0x08006f4e   Section        0  diskio.o(i.disk_write)
    i.exfuns_init                            0x08006f9c   Section        0  exfuns.o(i.exfuns_init)
    i.f_close                                0x08007020   Section        0  ff.o(i.f_close)
    i.f_mount                                0x08007044   Section        0  ff.o(i.f_mount)
    i.f_open                                 0x080070a0   Section        0  ff.o(i.f_open)
    i.f_read                                 0x08007220   Section        0  ff.o(i.f_read)
    i.f_sync                                 0x08007402   Section        0  ff.o(i.f_sync)
    i.ff_convert                             0x080074b4   Section        0  cc936.o(i.ff_convert)
    i.ff_memalloc                            0x08007530   Section        0  diskio.o(i.ff_memalloc)
    i.ff_memfree                             0x0800753e   Section        0  diskio.o(i.ff_memfree)
    i.ff_wtoupper                            0x0800754c   Section        0  cc936.o(i.ff_wtoupper)
    i.find_volume                            0x08007584   Section        0  ff.o(i.find_volume)
    find_volume                              0x08007585   Thumb Code   952  ff.o(i.find_volume)
    i.fit_lfn                                0x0800794c   Section        0  ff.o(i.fit_lfn)
    fit_lfn                                  0x0800794d   Thumb Code   122  ff.o(i.fit_lfn)
    i.follow_path                            0x080079cc   Section        0  ff.o(i.follow_path)
    follow_path                              0x080079cd   Thumb Code   144  ff.o(i.follow_path)
    i.fputc                                  0x08007a5c   Section        0  usart.o(i.fputc)
    i.gen_numname                            0x08007a60   Section        0  ff.o(i.gen_numname)
    gen_numname                              0x08007a61   Thumb Code   194  ff.o(i.gen_numname)
    i.get_fat                                0x08007b28   Section        0  ff.o(i.get_fat)
    i.get_fattime                            0x08007c5a   Section        0  diskio.o(i.get_fattime)
    i.get_ldnumber                           0x08007c5e   Section        0  ff.o(i.get_ldnumber)
    get_ldnumber                             0x08007c5f   Thumb Code    74  ff.o(i.get_ldnumber)
    i.iap_load_app                           0x08007ca8   Section        0  iap.o(i.iap_load_app)
    i.iap_write_appbin                       0x08007cd4   Section        0  iap.o(i.iap_write_appbin)
    i.ld_clust                               0x08007d3c   Section        0  ff.o(i.ld_clust)
    ld_clust                                 0x08007d3d   Thumb Code    32  ff.o(i.ld_clust)
    i.main                                   0x08007d5c   Section        0  main.o(i.main)
    i.mem_cmp                                0x08007e48   Section        0  ff.o(i.mem_cmp)
    mem_cmp                                  0x08007e49   Thumb Code    38  ff.o(i.mem_cmp)
    i.mem_cpy                                0x08007e6e   Section        0  ff.o(i.mem_cpy)
    mem_cpy                                  0x08007e6f   Thumb Code    26  ff.o(i.mem_cpy)
    i.mem_set                                0x08007e88   Section        0  ff.o(i.mem_set)
    mem_set                                  0x08007e89   Thumb Code    20  ff.o(i.mem_set)
    i.move_window                            0x08007e9c   Section        0  ff.o(i.move_window)
    move_window                              0x08007e9d   Thumb Code    50  ff.o(i.move_window)
    i.my_mem_free                            0x08007ed0   Section        0  malloc.o(i.my_mem_free)
    i.my_mem_init                            0x08007f3c   Section        0  malloc.o(i.my_mem_init)
    i.my_mem_malloc                          0x08007f80   Section        0  malloc.o(i.my_mem_malloc)
    i.my_mem_perused                         0x08008028   Section        0  malloc.o(i.my_mem_perused)
    i.myfree                                 0x08008068   Section        0  malloc.o(i.myfree)
    i.mymalloc                               0x0800808c   Section        0  malloc.o(i.mymalloc)
    i.mymemset                               0x080080b4   Section        0  malloc.o(i.mymemset)
    i.put_fat                                0x080080c8   Section        0  ff.o(i.put_fat)
    i.queue_find_cmd                         0x08008248   Section        0  cmd_queue.o(i.queue_find_cmd)
    i.queue_pop                              0x080082cc   Section        0  cmd_queue.o(i.queue_pop)
    queue_pop                                0x080082cd   Thumb Code    48  cmd_queue.o(i.queue_pop)
    i.queue_push                             0x08008300   Section        0  cmd_queue.o(i.queue_push)
    i.queue_reset                            0x08008330   Section        0  cmd_queue.o(i.queue_reset)
    i.queue_size                             0x08008350   Section        0  cmd_queue.o(i.queue_size)
    queue_size                               0x08008351   Thumb Code    30  cmd_queue.o(i.queue_size)
    i.remove_chain                           0x08008374   Section        0  ff.o(i.remove_chain)
    remove_chain                             0x08008375   Thumb Code   108  ff.o(i.remove_chain)
    i.st_clust                               0x080083e0   Section        0  ff.o(i.st_clust)
    st_clust                                 0x080083e1   Thumb Code    16  ff.o(i.st_clust)
    i.sum_sfn                                0x080083f0   Section        0  ff.o(i.sum_sfn)
    sum_sfn                                  0x080083f1   Thumb Code    32  ff.o(i.sum_sfn)
    i.sync_fs                                0x08008410   Section        0  ff.o(i.sync_fs)
    sync_fs                                  0x08008411   Thumb Code   200  ff.o(i.sync_fs)
    i.sync_window                            0x080084d8   Section        0  ff.o(i.sync_window)
    sync_window                              0x080084d9   Thumb Code    76  ff.o(i.sync_window)
    i.validate                               0x08008524   Section        0  ff.o(i.validate)
    validate                                 0x08008525   Thumb Code    54  ff.o(i.validate)
    .constdata                               0x0800855a   Section       58  ff.o(.constdata)
    LfnOfs                                   0x0800855a   Data          13  ff.o(.constdata)
    vst                                      0x08008568   Data          22  ff.o(.constdata)
    cst                                      0x0800857e   Data          22  ff.o(.constdata)
    .constdata                               0x08008594   Section    175304  cc936.o(.constdata)
    uni2oem                                  0x08008594   Data       87172  cc936.o(.constdata)
    oem2uni                                  0x0801da18   Data       87172  cc936.o(.constdata)
    tbl_lower                                0x08032e9c   Data         480  cc936.o(.constdata)
    tbl_upper                                0x0803307c   Data         480  cc936.o(.constdata)
    .constdata                               0x0803325c   Section       36  malloc.o(.constdata)
    .ARM.__AT_0x10000000                     0x10000000   Section    61440  malloc.o(.ARM.__AT_0x10000000)
    .ARM.__AT_0x1000F000                     0x1000f000   Section     3840  malloc.o(.ARM.__AT_0x1000F000)
    .data                                    0x20000000   Section        4  main.o(.data)
    .data                                    0x20000004   Section        8  iap.o(.data)
    .data                                    0x2000000c   Section       18  usbh_core.o(.data)
    timeout                                  0x2000001c   Data           2  usbh_core.o(.data)
    .data                                    0x2000001e   Section        3  usbh_stdreq.o(.data)
    prev_ep_size                             0x2000001e   Data           2  usbh_stdreq.o(.data)
    prev_itf                                 0x20000020   Data           1  usbh_stdreq.o(.data)
    .data                                    0x20000024   Section       17  usbh_msc_bot.o(.data)
    BOTStallErrorCount                       0x20000024   Data           4  usbh_msc_bot.o(.data)
    remainingDataLength                      0x20000028   Data           4  usbh_msc_bot.o(.data)
    datapointer                              0x2000002c   Data           4  usbh_msc_bot.o(.data)
    datapointer_prev                         0x20000030   Data           4  usbh_msc_bot.o(.data)
    error_direction                          0x20000034   Data           1  usbh_msc_bot.o(.data)
    .data                                    0x20000038   Section       29  usbh_msc_core.o(.data)
    maxLunExceed                             0x20000054   Data           1  usbh_msc_core.o(.data)
    .data                                    0x20000055   Section        1  usbh_msc_scsi.o(.data)
    status                                   0x20000055   Data           1  usbh_msc_scsi.o(.data)
    .data                                    0x20000058   Section       84  usbh_usr.o(.data)
    AppState                                 0x2000005c   Data           1  usbh_usr.o(.data)
    .data                                    0x200000ac   Section        4  delay.o(.data)
    fac_us                                   0x200000ac   Data           1  delay.o(.data)
    fac_ms                                   0x200000ae   Data           2  delay.o(.data)
    .data                                    0x200000b0   Section        6  cmd_queue.o(.data)
    cmd_state                                0x200000b0   Data           4  cmd_queue.o(.data)
    cmd_pos                                  0x200000b4   Data           2  cmd_queue.o(.data)
    .data                                    0x200000b6   Section        2  hmi_app.o(.data)
    current_screen_id                        0x200000b6   Data           2  hmi_app.o(.data)
    .data                                    0x200000b8   Section       12  usart.o(.data)
    .data                                    0x200000c4   Section        2  diskio.o(.data)
    .data                                    0x200000c6   Section        2  ff.o(.data)
    Fsid                                     0x200000c6   Data           2  ff.o(.data)
    .data                                    0x200000c8   Section       20  exfuns.o(.data)
    .data                                    0x200000dc   Section       16  stm32f4xx_rcc.o(.data)
    APBAHBPrescTable                         0x200000dc   Data          16  stm32f4xx_rcc.o(.data)
    .data                                    0x200000ec   Section       36  malloc.o(.data)
    .bss                                     0x20000110   Section     1584  bsp.o(.bss)
    .bss                                     0x20000740   Section     2048  iap.o(.bss)
    .bss                                     0x20000f40   Section      512  usbh_stdreq.o(.bss)
    .bss                                     0x20001140   Section       64  usbh_msc_bot.o(.bss)
    .bss                                     0x20001180   Section       74  usbh_msc_core.o(.bss)
    .bss                                     0x200011cc   Section     1040  usbh_msc_scsi.o(.bss)
    .bss                                     0x200015dc   Section     4926  usbh_usr.o(.bss)
    .bss                                     0x2000291a   Section     1028  cmd_queue.o(.bss)
    que                                      0x2000291a   Data        1028  cmd_queue.o(.bss)
    .bss                                     0x20002d1e   Section      500  hmi_app.o(.bss)
    .bss                                     0x20002f14   Section       12  ff.o(.bss)
    FatFs                                    0x20002f14   Data          12  ff.o(.bss)
    .bss                                     0x20002f20   Section       80  exfuns.o(.bss)
    .bss                                     0x20002f80   Section    108800  malloc.o(.bss)
    STACK                                    0x2001d880   Section     1024  startup_stm32f40_41xxx.o(STACK)
    .ARM.__AT_0x68000000                     0x68000000   Section    983040  malloc.o(.ARM.__AT_0x68000000)
    .ARM.__AT_0x680F0000                     0x680f0000   Section    61440  malloc.o(.ARM.__AT_0x680F0000)

    Global Symbols

    Symbol Name                              Value     Ov Type        Size  Object(Section)

    BuildAttributes$$THM_ISAv4$E$P$D$K$B$S$7EM$VFPi3$EXTD16$VFPS$VFMA$PE$A:L22UL41UL21$X:L11$S22US41US21$IEEE1$IW$USESV6$~STKCKD$USESV7$~SHL$OSPACE$ROPI$EBA8$MICROLIB$REQ8$PRES8$EABIv2 0x00000000   Number         0  anon$$obj.o ABSOLUTE
    __ARM_use_no_argv                        0x00000000   Number         0  main.o ABSOLUTE
    __use_no_errno                           0x00000000   Number         0  useno.o ABSOLUTE
    __use_no_exception_handling              0x00000000   Number         0  useno.o ABSOLUTE
    __use_no_fp                              0x00000000   Number         0  useno.o ABSOLUTE
    __use_no_heap                            0x00000000   Number         0  useno.o ABSOLUTE
    __use_no_heap_region                     0x00000000   Number         0  useno.o ABSOLUTE
    __use_no_semihosting                     0x00000000   Number         0  useno.o ABSOLUTE
    __use_no_semihosting_swi                 0x00000000   Number         0  useno.o ABSOLUTE
    __use_no_signal_handling                 0x00000000   Number         0  useno.o ABSOLUTE
    _printf_a                                0x00000000   Number         0  stubs.o ABSOLUTE
    _printf_c                                0x00000000   Number         0  stubs.o ABSOLUTE
    _printf_charcount                        0x00000000   Number         0  stubs.o ABSOLUTE
    _printf_d                                0x00000000   Number         0  stubs.o ABSOLUTE
    _printf_e                                0x00000000   Number         0  stubs.o ABSOLUTE
    _printf_f                                0x00000000   Number         0  stubs.o ABSOLUTE
    _printf_flags                            0x00000000   Number         0  stubs.o ABSOLUTE
    _printf_fp_dec                           0x00000000   Number         0  stubs.o ABSOLUTE
    _printf_fp_hex                           0x00000000   Number         0  stubs.o ABSOLUTE
    _printf_g                                0x00000000   Number         0  stubs.o ABSOLUTE
    _printf_i                                0x00000000   Number         0  stubs.o ABSOLUTE
    _printf_int_dec                          0x00000000   Number         0  stubs.o ABSOLUTE
    _printf_l                                0x00000000   Number         0  stubs.o ABSOLUTE
    _printf_lc                               0x00000000   Number         0  stubs.o ABSOLUTE
    _printf_ll                               0x00000000   Number         0  stubs.o ABSOLUTE
    _printf_lld                              0x00000000   Number         0  stubs.o ABSOLUTE
    _printf_lli                              0x00000000   Number         0  stubs.o ABSOLUTE
    _printf_llo                              0x00000000   Number         0  stubs.o ABSOLUTE
    _printf_llu                              0x00000000   Number         0  stubs.o ABSOLUTE
    _printf_llx                              0x00000000   Number         0  stubs.o ABSOLUTE
    _printf_longlong_dec                     0x00000000   Number         0  stubs.o ABSOLUTE
    _printf_longlong_hex                     0x00000000   Number         0  stubs.o ABSOLUTE
    _printf_longlong_oct                     0x00000000   Number         0  stubs.o ABSOLUTE
    _printf_ls                               0x00000000   Number         0  stubs.o ABSOLUTE
    _printf_mbtowc                           0x00000000   Number         0  stubs.o ABSOLUTE
    _printf_n                                0x00000000   Number         0  stubs.o ABSOLUTE
    _printf_o                                0x00000000   Number         0  stubs.o ABSOLUTE
    _printf_p                                0x00000000   Number         0  stubs.o ABSOLUTE
    _printf_percent                          0x00000000   Number         0  stubs.o ABSOLUTE
    _printf_pre_padding                      0x00000000   Number         0  stubs.o ABSOLUTE
    _printf_return_value                     0x00000000   Number         0  stubs.o ABSOLUTE
    _printf_s                                0x00000000   Number         0  stubs.o ABSOLUTE
    _printf_sizespec                         0x00000000   Number         0  stubs.o ABSOLUTE
    _printf_str                              0x00000000   Number         0  stubs.o ABSOLUTE
    _printf_truncate_signed                  0x00000000   Number         0  stubs.o ABSOLUTE
    _printf_truncate_unsigned                0x00000000   Number         0  stubs.o ABSOLUTE
    _printf_u                                0x00000000   Number         0  stubs.o ABSOLUTE
    _printf_wc                               0x00000000   Number         0  stubs.o ABSOLUTE
    _printf_wctomb                           0x00000000   Number         0  stubs.o ABSOLUTE
    _printf_widthprec                        0x00000000   Number         0  stubs.o ABSOLUTE
    _printf_x                                0x00000000   Number         0  stubs.o ABSOLUTE
    __arm_fini_                               - Undefined Weak Reference
    __cpp_initialize__aeabi_                  - Undefined Weak Reference
    __cxa_finalize                            - Undefined Weak Reference
    __decompress                              - Undefined Weak Reference
    _clock_init                               - Undefined Weak Reference
    _microlib_exit                            - Undefined Weak Reference
    __Vectors_Size                           0x00000188   Number         0  startup_stm32f40_41xxx.o ABSOLUTE
    __Vectors                                0x08000000   Data           4  startup_stm32f40_41xxx.o(RESET)
    __Vectors_End                            0x08000188   Data           0  startup_stm32f40_41xxx.o(RESET)
    __main                                   0x08000189   Thumb Code     0  entry.o(.ARM.Collect$$$$00000000)
    _main_stk                                0x08000189   Thumb Code     0  entry2.o(.ARM.Collect$$$$00000001)
    _main_scatterload                        0x0800018d   Thumb Code     0  entry5.o(.ARM.Collect$$$$00000004)
    __main_after_scatterload                 0x08000191   Thumb Code     0  entry5.o(.ARM.Collect$$$$00000004)
    _main_clock                              0x08000191   Thumb Code     0  entry7b.o(.ARM.Collect$$$$00000008)
    _main_cpp_init                           0x08000191   Thumb Code     0  entry8b.o(.ARM.Collect$$$$0000000A)
    _main_init                               0x08000191   Thumb Code     0  entry9a.o(.ARM.Collect$$$$0000000B)
    __rt_lib_shutdown_fini                   0x08000199   Thumb Code     0  entry12b.o(.ARM.Collect$$$$0000000E)
    __rt_final_cpp                           0x0800019d   Thumb Code     0  entry10a.o(.ARM.Collect$$$$0000000F)
    __rt_final_exit                          0x0800019d   Thumb Code     0  entry11a.o(.ARM.Collect$$$$00000011)
    WFI_SET                                  0x080001a1   Thumb Code     2  sys.o(.emb_text)
    INTX_DISABLE                             0x080001a3   Thumb Code     4  sys.o(.emb_text)
    INTX_ENABLE                              0x080001a7   Thumb Code     4  sys.o(.emb_text)
    MSR_MSP                                  0x080001ab   Thumb Code     6  sys.o(.emb_text)
    Reset_Handler                            0x080001b1   Thumb Code     8  startup_stm32f40_41xxx.o(.text)
    SVC_Handler                              0x080001c3   Thumb Code     2  startup_stm32f40_41xxx.o(.text)
    PendSV_Handler                           0x080001c7   Thumb Code     2  startup_stm32f40_41xxx.o(.text)
    SysTick_Handler                          0x080001c9   Thumb Code     2  startup_stm32f40_41xxx.o(.text)
    ADC_IRQHandler                           0x080001cb   Thumb Code     0  startup_stm32f40_41xxx.o(.text)
    CAN1_RX0_IRQHandler                      0x080001cb   Thumb Code     0  startup_stm32f40_41xxx.o(.text)
    CAN1_RX1_IRQHandler                      0x080001cb   Thumb Code     0  startup_stm32f40_41xxx.o(.text)
    CAN1_SCE_IRQHandler                      0x080001cb   Thumb Code     0  startup_stm32f40_41xxx.o(.text)
    CAN1_TX_IRQHandler                       0x080001cb   Thumb Code     0  startup_stm32f40_41xxx.o(.text)
    CAN2_RX0_IRQHandler                      0x080001cb   Thumb Code     0  startup_stm32f40_41xxx.o(.text)
    CAN2_RX1_IRQHandler                      0x080001cb   Thumb Code     0  startup_stm32f40_41xxx.o(.text)
    CAN2_SCE_IRQHandler                      0x080001cb   Thumb Code     0  startup_stm32f40_41xxx.o(.text)
    CAN2_TX_IRQHandler                       0x080001cb   Thumb Code     0  startup_stm32f40_41xxx.o(.text)
    CRYP_IRQHandler                          0x080001cb   Thumb Code     0  startup_stm32f40_41xxx.o(.text)
    DCMI_IRQHandler                          0x080001cb   Thumb Code     0  startup_stm32f40_41xxx.o(.text)
    DMA1_Stream0_IRQHandler                  0x080001cb   Thumb Code     0  startup_stm32f40_41xxx.o(.text)
    DMA1_Stream1_IRQHandler                  0x080001cb   Thumb Code     0  startup_stm32f40_41xxx.o(.text)
    DMA1_Stream2_IRQHandler                  0x080001cb   Thumb Code     0  startup_stm32f40_41xxx.o(.text)
    DMA1_Stream3_IRQHandler                  0x080001cb   Thumb Code     0  startup_stm32f40_41xxx.o(.text)
    DMA1_Stream4_IRQHandler                  0x080001cb   Thumb Code     0  startup_stm32f40_41xxx.o(.text)
    DMA1_Stream5_IRQHandler                  0x080001cb   Thumb Code     0  startup_stm32f40_41xxx.o(.text)
    DMA1_Stream6_IRQHandler                  0x080001cb   Thumb Code     0  startup_stm32f40_41xxx.o(.text)
    DMA1_Stream7_IRQHandler                  0x080001cb   Thumb Code     0  startup_stm32f40_41xxx.o(.text)
    DMA2_Stream0_IRQHandler                  0x080001cb   Thumb Code     0  startup_stm32f40_41xxx.o(.text)
    DMA2_Stream1_IRQHandler                  0x080001cb   Thumb Code     0  startup_stm32f40_41xxx.o(.text)
    DMA2_Stream2_IRQHandler                  0x080001cb   Thumb Code     0  startup_stm32f40_41xxx.o(.text)
    DMA2_Stream3_IRQHandler                  0x080001cb   Thumb Code     0  startup_stm32f40_41xxx.o(.text)
    DMA2_Stream4_IRQHandler                  0x080001cb   Thumb Code     0  startup_stm32f40_41xxx.o(.text)
    DMA2_Stream5_IRQHandler                  0x080001cb   Thumb Code     0  startup_stm32f40_41xxx.o(.text)
    DMA2_Stream6_IRQHandler                  0x080001cb   Thumb Code     0  startup_stm32f40_41xxx.o(.text)
    DMA2_Stream7_IRQHandler                  0x080001cb   Thumb Code     0  startup_stm32f40_41xxx.o(.text)
    ETH_IRQHandler                           0x080001cb   Thumb Code     0  startup_stm32f40_41xxx.o(.text)
    ETH_WKUP_IRQHandler                      0x080001cb   Thumb Code     0  startup_stm32f40_41xxx.o(.text)
    EXTI0_IRQHandler                         0x080001cb   Thumb Code     0  startup_stm32f40_41xxx.o(.text)
    EXTI15_10_IRQHandler                     0x080001cb   Thumb Code     0  startup_stm32f40_41xxx.o(.text)
    EXTI1_IRQHandler                         0x080001cb   Thumb Code     0  startup_stm32f40_41xxx.o(.text)
    EXTI2_IRQHandler                         0x080001cb   Thumb Code     0  startup_stm32f40_41xxx.o(.text)
    EXTI3_IRQHandler                         0x080001cb   Thumb Code     0  startup_stm32f40_41xxx.o(.text)
    EXTI4_IRQHandler                         0x080001cb   Thumb Code     0  startup_stm32f40_41xxx.o(.text)
    EXTI9_5_IRQHandler                       0x080001cb   Thumb Code     0  startup_stm32f40_41xxx.o(.text)
    FLASH_IRQHandler                         0x080001cb   Thumb Code     0  startup_stm32f40_41xxx.o(.text)
    FPU_IRQHandler                           0x080001cb   Thumb Code     0  startup_stm32f40_41xxx.o(.text)
    FSMC_IRQHandler                          0x080001cb   Thumb Code     0  startup_stm32f40_41xxx.o(.text)
    HASH_RNG_IRQHandler                      0x080001cb   Thumb Code     0  startup_stm32f40_41xxx.o(.text)
    I2C1_ER_IRQHandler                       0x080001cb   Thumb Code     0  startup_stm32f40_41xxx.o(.text)
    I2C1_EV_IRQHandler                       0x080001cb   Thumb Code     0  startup_stm32f40_41xxx.o(.text)
    I2C2_ER_IRQHandler                       0x080001cb   Thumb Code     0  startup_stm32f40_41xxx.o(.text)
    I2C2_EV_IRQHandler                       0x080001cb   Thumb Code     0  startup_stm32f40_41xxx.o(.text)
    I2C3_ER_IRQHandler                       0x080001cb   Thumb Code     0  startup_stm32f40_41xxx.o(.text)
    I2C3_EV_IRQHandler                       0x080001cb   Thumb Code     0  startup_stm32f40_41xxx.o(.text)
    OTG_FS_WKUP_IRQHandler                   0x080001cb   Thumb Code     0  startup_stm32f40_41xxx.o(.text)
    OTG_HS_EP1_IN_IRQHandler                 0x080001cb   Thumb Code     0  startup_stm32f40_41xxx.o(.text)
    OTG_HS_EP1_OUT_IRQHandler                0x080001cb   Thumb Code     0  startup_stm32f40_41xxx.o(.text)
    OTG_HS_IRQHandler                        0x080001cb   Thumb Code     0  startup_stm32f40_41xxx.o(.text)
    OTG_HS_WKUP_IRQHandler                   0x080001cb   Thumb Code     0  startup_stm32f40_41xxx.o(.text)
    PVD_IRQHandler                           0x080001cb   Thumb Code     0  startup_stm32f40_41xxx.o(.text)
    RCC_IRQHandler                           0x080001cb   Thumb Code     0  startup_stm32f40_41xxx.o(.text)
    RTC_Alarm_IRQHandler                     0x080001cb   Thumb Code     0  startup_stm32f40_41xxx.o(.text)
    RTC_WKUP_IRQHandler                      0x080001cb   Thumb Code     0  startup_stm32f40_41xxx.o(.text)
    SDIO_IRQHandler                          0x080001cb   Thumb Code     0  startup_stm32f40_41xxx.o(.text)
    SPI1_IRQHandler                          0x080001cb   Thumb Code     0  startup_stm32f40_41xxx.o(.text)
    SPI2_IRQHandler                          0x080001cb   Thumb Code     0  startup_stm32f40_41xxx.o(.text)
    SPI3_IRQHandler                          0x080001cb   Thumb Code     0  startup_stm32f40_41xxx.o(.text)
    TAMP_STAMP_IRQHandler                    0x080001cb   Thumb Code     0  startup_stm32f40_41xxx.o(.text)
    TIM1_BRK_TIM9_IRQHandler                 0x080001cb   Thumb Code     0  startup_stm32f40_41xxx.o(.text)
    TIM1_CC_IRQHandler                       0x080001cb   Thumb Code     0  startup_stm32f40_41xxx.o(.text)
    TIM1_TRG_COM_TIM11_IRQHandler            0x080001cb   Thumb Code     0  startup_stm32f40_41xxx.o(.text)
    TIM1_UP_TIM10_IRQHandler                 0x080001cb   Thumb Code     0  startup_stm32f40_41xxx.o(.text)
    TIM2_IRQHandler                          0x080001cb   Thumb Code     0  startup_stm32f40_41xxx.o(.text)
    TIM3_IRQHandler                          0x080001cb   Thumb Code     0  startup_stm32f40_41xxx.o(.text)
    TIM4_IRQHandler                          0x080001cb   Thumb Code     0  startup_stm32f40_41xxx.o(.text)
    TIM5_IRQHandler                          0x080001cb   Thumb Code     0  startup_stm32f40_41xxx.o(.text)
    TIM6_DAC_IRQHandler                      0x080001cb   Thumb Code     0  startup_stm32f40_41xxx.o(.text)
    TIM7_IRQHandler                          0x080001cb   Thumb Code     0  startup_stm32f40_41xxx.o(.text)
    TIM8_BRK_TIM12_IRQHandler                0x080001cb   Thumb Code     0  startup_stm32f40_41xxx.o(.text)
    TIM8_CC_IRQHandler                       0x080001cb   Thumb Code     0  startup_stm32f40_41xxx.o(.text)
    TIM8_TRG_COM_TIM14_IRQHandler            0x080001cb   Thumb Code     0  startup_stm32f40_41xxx.o(.text)
    TIM8_UP_TIM13_IRQHandler                 0x080001cb   Thumb Code     0  startup_stm32f40_41xxx.o(.text)
    UART4_IRQHandler                         0x080001cb   Thumb Code     0  startup_stm32f40_41xxx.o(.text)
    UART5_IRQHandler                         0x080001cb   Thumb Code     0  startup_stm32f40_41xxx.o(.text)
    USART2_IRQHandler                        0x080001cb   Thumb Code     0  startup_stm32f40_41xxx.o(.text)
    USART3_IRQHandler                        0x080001cb   Thumb Code     0  startup_stm32f40_41xxx.o(.text)
    USART6_IRQHandler                        0x080001cb   Thumb Code     0  startup_stm32f40_41xxx.o(.text)
    WWDG_IRQHandler                          0x080001cb   Thumb Code     0  startup_stm32f40_41xxx.o(.text)
    __aeabi_f2d                              0x080001d5   Thumb Code    38  f2d.o(.text)
    __aeabi_uidiv                            0x080001fb   Thumb Code     0  uidiv.o(.text)
    __aeabi_uidivmod                         0x080001fb   Thumb Code    44  uidiv.o(.text)
    __aeabi_uldivmod                         0x08000227   Thumb Code    98  uldiv.o(.text)
    __I$use$fp                               0x08000289   Thumb Code     0  iusefp.o(.text)
    __aeabi_dadd                             0x08000289   Thumb Code   322  dadd.o(.text)
    __aeabi_dsub                             0x080003cb   Thumb Code     6  dadd.o(.text)
    __aeabi_drsub                            0x080003d1   Thumb Code     6  dadd.o(.text)
    __aeabi_dmul                             0x080003d7   Thumb Code   228  dmul.o(.text)
    __aeabi_ddiv                             0x080004bb   Thumb Code   222  ddiv.o(.text)
    __aeabi_d2ulz                            0x08000599   Thumb Code    48  dfixul.o(.text)
    __aeabi_cdrcmple                         0x080005c9   Thumb Code    48  cdrcmple.o(.text)
    __scatterload                            0x080005f9   Thumb Code    28  init.o(.text)
    __scatterload_rt2                        0x080005f9   Thumb Code     0  init.o(.text)
    __aeabi_llsl                             0x0800061d   Thumb Code    30  llshl.o(.text)
    _ll_shift_l                              0x0800061d   Thumb Code     0  llshl.o(.text)
    __aeabi_llsr                             0x0800063b   Thumb Code    32  llushr.o(.text)
    _ll_ushift_r                             0x0800063b   Thumb Code     0  llushr.o(.text)
    __aeabi_lasr                             0x0800065b   Thumb Code    36  llsshr.o(.text)
    _ll_sshift_r                             0x0800065b   Thumb Code     0  llsshr.o(.text)
    _double_round                            0x0800067f   Thumb Code    30  depilogue.o(.text)
    _double_epilogue                         0x0800069d   Thumb Code   156  depilogue.o(.text)
    BELL_Work                                0x08000739   Thumb Code     2  bell.o(i.BELL_Work)
    BSP_Init                                 0x0800073d   Thumb Code   152  bsp.o(i.BSP_Init)
    BeginUpdateHMI                           0x0800087d   Thumb Code    22  hmi_driver.o(i.BeginUpdateHMI)
    BusFault_Handler                         0x0800089d   Thumb Code     8  stm32f4xx_it.o(i.BusFault_Handler)
    CheckHMIUpdateFiles                      0x080008a5   Thumb Code   148  usbh_usr.o(i.CheckHMIUpdateFiles)
    Check_HMI_Image_Index                    0x0800098d   Thumb Code   222  usbh_usr.o(i.Check_HMI_Image_Index)
    DebugMon_Handler                         0x08000a7d   Thumb Code     2  stm32f4xx_it.o(i.DebugMon_Handler)
    EndUpdateHMI                             0x08000a81   Thumb Code    20  hmi_driver.o(i.EndUpdateHMI)
    FLASH_DataCacheCmd                       0x08000a99   Thumb Code    30  stm32f4xx_flash.o(i.FLASH_DataCacheCmd)
    FLASH_EraseSector                        0x08000abd   Thumb Code   130  stm32f4xx_flash.o(i.FLASH_EraseSector)
    FLASH_GetStatus                          0x08000b45   Thumb Code    80  stm32f4xx_flash.o(i.FLASH_GetStatus)
    FLASH_Lock                               0x08000b99   Thumb Code    14  stm32f4xx_flash.o(i.FLASH_Lock)
    FLASH_ProgramWord                        0x08000bad   Thumb Code    74  stm32f4xx_flash.o(i.FLASH_ProgramWord)
    FLASH_Unlock                             0x08000bfd   Thumb Code    24  stm32f4xx_flash.o(i.FLASH_Unlock)
    FLASH_WaitForLastOperation               0x08000c21   Thumb Code    34  stm32f4xx_flash.o(i.FLASH_WaitForLastOperation)
    GOIO_OUT_Init                            0x08000c45   Thumb Code    56  bsp.o(i.GOIO_OUT_Init)
    GPIO_Init                                0x08000c81   Thumb Code   144  stm32f4xx_gpio.o(i.GPIO_Init)
    GPIO_PinAFConfig                         0x08000d11   Thumb Code    70  stm32f4xx_gpio.o(i.GPIO_PinAFConfig)
    GPIO_ResetBits                           0x08000d57   Thumb Code     4  stm32f4xx_gpio.o(i.GPIO_ResetBits)
    HCD_GetCurrentFrame                      0x08000d5b   Thumb Code    10  usb_hcd.o(i.HCD_GetCurrentFrame)
    HCD_GetCurrentSpeed                      0x08000d65   Thumb Code    20  usb_hcd.o(i.HCD_GetCurrentSpeed)
    HCD_GetURB_State                         0x08000d79   Thumb Code    10  usb_hcd.o(i.HCD_GetURB_State)
    HCD_GetXferCnt                           0x08000d83   Thumb Code    12  usb_hcd.o(i.HCD_GetXferCnt)
    HCD_Init                                 0x08000d8f   Thumb Code    96  usb_hcd.o(i.HCD_Init)
    HCD_IsDeviceConnected                    0x08000def   Thumb Code     8  usb_hcd.o(i.HCD_IsDeviceConnected)
    HCD_ResetPort                            0x08000df7   Thumb Code    14  usb_hcd.o(i.HCD_ResetPort)
    HCD_SubmitRequest                        0x08000e05   Thumb Code    32  usb_hcd.o(i.HCD_SubmitRequest)
    HMI_SendSingleChar                       0x08000e25   Thumb Code    42  usart.o(i.HMI_SendSingleChar)
    HMI_USART_Init                           0x08000e55   Thumb Code   172  usart.o(i.HMI_USART_Init)
    HardFault_Handler                        0x08000f09   Thumb Code     8  stm32f4xx_it.o(i.HardFault_Handler)
    MemManage_Handler                        0x08000f11   Thumb Code     8  stm32f4xx_it.o(i.MemManage_Handler)
    NMI_Handler                              0x08000f19   Thumb Code     2  stm32f4xx_it.o(i.NMI_Handler)
    NVIC_Init                                0x08000f1d   Thumb Code   106  misc.o(i.NVIC_Init)
    NVIC_PriorityGroupConfig                 0x08000f95   Thumb Code    10  misc.o(i.NVIC_PriorityGroupConfig)
    NVIC_SetVectorTable                      0x08000fa9   Thumb Code    12  misc.o(i.NVIC_SetVectorTable)
    NotifyButton                             0x08000fe5   Thumb Code    42  hmi_app.o(i.NotifyButton)
    NotifyScreen                             0x08001021   Thumb Code    14  hmi_app.o(i.NotifyScreen)
    OTG_FS_IRQHandler                        0x08001035   Thumb Code    10  usbh_usr.o(i.OTG_FS_IRQHandler)
    ProcessMessage                           0x08001045   Thumb Code    76  hmi_app.o(i.ProcessMessage)
    RCC_AHB1PeriphClockCmd                   0x08001091   Thumb Code    26  stm32f4xx_rcc.o(i.RCC_AHB1PeriphClockCmd)
    RCC_AHB2PeriphClockCmd                   0x080010b1   Thumb Code    26  stm32f4xx_rcc.o(i.RCC_AHB2PeriphClockCmd)
    RCC_APB1PeriphResetCmd                   0x080010d1   Thumb Code    26  stm32f4xx_rcc.o(i.RCC_APB1PeriphResetCmd)
    RCC_APB2PeriphClockCmd                   0x080010f1   Thumb Code    26  stm32f4xx_rcc.o(i.RCC_APB2PeriphClockCmd)
    RCC_APB2PeriphResetCmd                   0x08001111   Thumb Code    26  stm32f4xx_rcc.o(i.RCC_APB2PeriphResetCmd)
    RCC_GetClocksFreq                        0x08001131   Thumb Code   214  stm32f4xx_rcc.o(i.RCC_GetClocksFreq)
    RSRT                                     0x08001219   Thumb Code    68  hmi_driver.o(i.RSRT)
    ReadImgIdx                               0x08001261   Thumb Code    40  hmi_driver.o(i.ReadImgIdx)
    STMFLASH_GetFlashSector                  0x08001289   Thumb Code   116  stmflash.o(i.STMFLASH_GetFlashSector)
    STMFLASH_ReadWord                        0x08001329   Thumb Code     6  stmflash.o(i.STMFLASH_ReadWord)
    STMFLASH_Write                           0x08001331   Thumb Code   146  stmflash.o(i.STMFLASH_Write)
    SendFiledData                            0x080013c9   Thumb Code    30  hmi_driver.o(i.SendFiledData)
    SendNU8                                  0x080013ed   Thumb Code    26  hmi_driver.o(i.SendNU8)
    SetProgressValue                         0x08001407   Thumb Code   104  hmi_driver.o(i.SetProgressValue)
    SetScreen                                0x0800146f   Thumb Code    60  hmi_driver.o(i.SetScreen)
    SysTick_CLKSourceConfig                  0x08001599   Thumb Code    40  misc.o(i.SysTick_CLKSourceConfig)
    SystemInit                               0x080015c1   Thumb Code    88  system_stm32f4xx.o(i.SystemInit)
    USART1_IRQHandler                        0x08001629   Thumb Code   104  usart.o(i.USART1_IRQHandler)
    USART_ClearFlag                          0x08001695   Thumb Code    18  stm32f4xx_usart.o(i.USART_ClearFlag)
    USART_ClearITPendingBit                  0x080016a7   Thumb Code    30  stm32f4xx_usart.o(i.USART_ClearITPendingBit)
    USART_Cmd                                0x080016c5   Thumb Code    24  stm32f4xx_usart.o(i.USART_Cmd)
    USART_DeInit                             0x080016dd   Thumb Code   206  stm32f4xx_usart.o(i.USART_DeInit)
    USART_GetFlagStatus                      0x080017cd   Thumb Code    26  stm32f4xx_usart.o(i.USART_GetFlagStatus)
    USART_GetITStatus                        0x080017e7   Thumb Code    84  stm32f4xx_usart.o(i.USART_GetITStatus)
    USART_ITConfig                           0x0800183b   Thumb Code    74  stm32f4xx_usart.o(i.USART_ITConfig)
    USART_Init                               0x08001885   Thumb Code   204  stm32f4xx_usart.o(i.USART_Init)
    USART_ReceiveData                        0x08001959   Thumb Code    10  stm32f4xx_usart.o(i.USART_ReceiveData)
    USART_SendData                           0x08001963   Thumb Code     8  stm32f4xx_usart.o(i.USART_SendData)
    USBH_Alloc_Channel                       0x0800196b   Thumb Code    38  usbh_hcs.o(i.USBH_Alloc_Channel)
    USBH_BulkReceiveData                     0x08001991   Thumb Code    96  usbh_ioreq.o(i.USBH_BulkReceiveData)
    USBH_BulkSendData                        0x080019f1   Thumb Code    94  usbh_ioreq.o(i.USBH_BulkSendData)
    USBH_ClrFeature                          0x08001a4f   Thumb Code    76  usbh_stdreq.o(i.USBH_ClrFeature)
    USBH_Connected                           0x08001a9b   Thumb Code    12  usbh_core.o(i.USBH_Connected)
    USBH_CtlReceiveData                      0x08001aa7   Thumb Code    70  usbh_ioreq.o(i.USBH_CtlReceiveData)
    USBH_CtlReq                              0x08001aed   Thumb Code   100  usbh_ioreq.o(i.USBH_CtlReq)
    USBH_CtlSendData                         0x08001b51   Thumb Code   110  usbh_ioreq.o(i.USBH_CtlSendData)
    USBH_CtlSendSetup                        0x08001bbf   Thumb Code    66  usbh_ioreq.o(i.USBH_CtlSendSetup)
    USBH_DeAllocate_AllChannel               0x08001c01   Thumb Code    28  usbh_hcs.o(i.USBH_DeAllocate_AllChannel)
    USBH_DeInit                              0x08001c1d   Thumb Code    58  usbh_core.o(i.USBH_DeInit)
    USBH_Disconnected                        0x08001c57   Thumb Code    12  usbh_core.o(i.USBH_Disconnected)
    USBH_ErrorHandle                         0x08001c63   Thumb Code    46  usbh_core.o(i.USBH_ErrorHandle)
    USBH_Free_Channel                        0x08001c91   Thumb Code    30  usbh_hcs.o(i.USBH_Free_Channel)
    USBH_GetDescriptor                       0x08001caf   Thumb Code    68  usbh_stdreq.o(i.USBH_GetDescriptor)
    USBH_GetNextDesc                         0x08001d1b   Thumb Code    18  usbh_stdreq.o(i.USBH_GetNextDesc)
    USBH_Get_CfgDesc                         0x08001d2d   Thumb Code    88  usbh_stdreq.o(i.USBH_Get_CfgDesc)
    USBH_Get_DevDesc                         0x08001d89   Thumb Code    56  usbh_stdreq.o(i.USBH_Get_DevDesc)
    USBH_Get_StringDesc                      0x08001dc1   Thumb Code    60  usbh_stdreq.o(i.USBH_Get_StringDesc)
    USBH_HandleControl                       0x08001dfd   Thumb Code   544  usbh_core.o(i.USBH_HandleControl)
    USBH_Init                                0x080021fd   Thumb Code    68  usbh_core.o(i.USBH_Init)
    USBH_MSC_BOT_Abort                       0x08002265   Thumb Code    86  usbh_msc_bot.o(i.USBH_MSC_BOT_Abort)
    USBH_MSC_DecodeCSW                       0x080022d9   Thumb Code   108  usbh_msc_bot.o(i.USBH_MSC_DecodeCSW)
    USBH_MSC_ErrorHandle                     0x08002359   Thumb Code    58  usbh_msc_core.o(i.USBH_MSC_ErrorHandle)
    USBH_MSC_HandleBOTXfer                   0x08002571   Thumb Code   812  usbh_msc_bot.o(i.USBH_MSC_HandleBOTXfer)
    USBH_MSC_Init                            0x080028c1   Thumb Code    44  usbh_msc_bot.o(i.USBH_MSC_Init)
    USBH_MSC_ModeSense6                      0x08002a21   Thumb Code   192  usbh_msc_scsi.o(i.USBH_MSC_ModeSense6)
    USBH_MSC_Read10                          0x08002af1   Thumb Code   242  usbh_msc_scsi.o(i.USBH_MSC_Read10)
    USBH_MSC_ReadCapacity10                  0x08002bf1   Thumb Code   202  usbh_msc_scsi.o(i.USBH_MSC_ReadCapacity10)
    USBH_MSC_RequestSense                    0x08002ccd   Thumb Code   208  usbh_msc_scsi.o(i.USBH_MSC_RequestSense)
    USBH_MSC_TestUnitReady                   0x08002dad   Thumb Code   162  usbh_msc_scsi.o(i.USBH_MSC_TestUnitReady)
    USBH_MSC_Write10                         0x08002e5d   Thumb Code   218  usbh_msc_scsi.o(i.USBH_MSC_Write10)
    USBH_Modify_Channel                      0x08002f41   Thumb Code   100  usbh_hcs.o(i.USBH_Modify_Channel)
    USBH_OTG_ISR_Handler                     0x08002fa5   Thumb Code   168  usb_hcd_int.o(i.USBH_OTG_ISR_Handler)
    USBH_Open_Channel                        0x0800304d   Thumb Code   154  usbh_hcs.o(i.USBH_Open_Channel)
    USBH_Process                             0x080032d9   Thumb Code   408  usbh_core.o(i.USBH_Process)
    USBH_SOF                                 0x08003471   Thumb Code     6  usbh_core.o(i.USBH_SOF)
    USBH_SetAddress                          0x08003477   Thumb Code    38  usbh_stdreq.o(i.USBH_SetAddress)
    USBH_SetCfg                              0x0800349d   Thumb Code    38  usbh_stdreq.o(i.USBH_SetCfg)
    USBH_UDISK_Read                          0x080034dd   Thumb Code    82  usbh_usr.o(i.USBH_UDISK_Read)
    USBH_UDISK_Status                        0x0800353d   Thumb Code    12  usbh_usr.o(i.USBH_UDISK_Status)
    USBH_UDISK_Write                         0x0800354d   Thumb Code    82  usbh_usr.o(i.USBH_UDISK_Write)
    USBH_USR_Configuration_DescAvailable     0x080035ad   Thumb Code    16  usbh_usr.o(i.USBH_USR_Configuration_DescAvailable)
    USBH_USR_DeInit                          0x080035bd   Thumb Code     8  usbh_usr.o(i.USBH_USR_DeInit)
    USBH_USR_DeviceAddressAssigned           0x080035c9   Thumb Code     2  usbh_usr.o(i.USBH_USR_DeviceAddressAssigned)
    USBH_USR_DeviceAttached                  0x080035cb   Thumb Code     2  usbh_usr.o(i.USBH_USR_DeviceAttached)
    USBH_USR_DeviceDisconnected              0x080035cd   Thumb Code     2  usbh_usr.o(i.USBH_USR_DeviceDisconnected)
    USBH_USR_DeviceNotSupported              0x080035cf   Thumb Code     2  usbh_usr.o(i.USBH_USR_DeviceNotSupported)
    USBH_USR_DeviceSpeedDetected             0x080035d1   Thumb Code    10  usbh_usr.o(i.USBH_USR_DeviceSpeedDetected)
    USBH_USR_Device_DescAvailable            0x080035db   Thumb Code     2  usbh_usr.o(i.USBH_USR_Device_DescAvailable)
    USBH_USR_EnumerationDone                 0x080035dd   Thumb Code    10  usbh_usr.o(i.USBH_USR_EnumerationDone)
    USBH_USR_Init                            0x080035fd   Thumb Code     2  usbh_usr.o(i.USBH_USR_Init)
    USBH_USR_MSC_Application                 0x08003601   Thumb Code    50  usbh_usr.o(i.USBH_USR_MSC_Application)
    USBH_USR_Manufacturer_String             0x08003639   Thumb Code     2  usbh_usr.o(i.USBH_USR_Manufacturer_String)
    USBH_USR_OverCurrentDetected             0x0800363b   Thumb Code     2  usbh_usr.o(i.USBH_USR_OverCurrentDetected)
    USBH_USR_Product_String                  0x0800363d   Thumb Code     2  usbh_usr.o(i.USBH_USR_Product_String)
    USBH_USR_ResetDevice                     0x0800363f   Thumb Code     2  usbh_usr.o(i.USBH_USR_ResetDevice)
    USBH_USR_SerialNum_String                0x08003641   Thumb Code     2  usbh_usr.o(i.USBH_USR_SerialNum_String)
    USBH_USR_UnrecoveredError                0x08003643   Thumb Code     2  usbh_usr.o(i.USBH_USR_UnrecoveredError)
    USBH_USR_UserInput                       0x08003645   Thumb Code     4  usbh_usr.o(i.USBH_USR_UserInput)
    USB_OTG_BSP_ConfigVBUS                   0x08003649   Thumb Code     2  usb_bsp.o(i.USB_OTG_BSP_ConfigVBUS)
    USB_OTG_BSP_DriveVBUS                    0x0800364b   Thumb Code     2  usb_bsp.o(i.USB_OTG_BSP_DriveVBUS)
    USB_OTG_BSP_EnableInterrupt              0x0800364d   Thumb Code    36  usb_bsp.o(i.USB_OTG_BSP_EnableInterrupt)
    USB_OTG_BSP_Init                         0x08003671   Thumb Code    80  usb_bsp.o(i.USB_OTG_BSP_Init)
    USB_OTG_BSP_mDelay                       0x080036c5   Thumb Code    12  usb_bsp.o(i.USB_OTG_BSP_mDelay)
    USB_OTG_BSP_uDelay                       0x080036d1   Thumb Code    12  usb_bsp.o(i.USB_OTG_BSP_uDelay)
    USB_OTG_CoreInit                         0x080036dd   Thumb Code   294  usb_core.o(i.USB_OTG_CoreInit)
    USB_OTG_CoreInitHost                     0x08003803   Thumb Code   214  usb_core.o(i.USB_OTG_CoreInitHost)
    USB_OTG_DisableGlobalInt                 0x08003949   Thumb Code    34  usb_core.o(i.USB_OTG_DisableGlobalInt)
    USB_OTG_DriveVbus                        0x0800396b   Thumb Code    92  usb_core.o(i.USB_OTG_DriveVbus)
    USB_OTG_EnableGlobalInt                  0x080039fb   Thumb Code    34  usb_core.o(i.USB_OTG_EnableGlobalInt)
    USB_OTG_EnableHostInt                    0x08003a1d   Thumb Code   116  usb_core.o(i.USB_OTG_EnableHostInt)
    USB_OTG_FlushRxFifo                      0x08003a91   Thumb Code    70  usb_core.o(i.USB_OTG_FlushRxFifo)
    USB_OTG_FlushTxFifo                      0x08003add   Thumb Code    80  usb_core.o(i.USB_OTG_FlushTxFifo)
    USB_OTG_GetMode                          0x08003b31   Thumb Code    12  usb_core.o(i.USB_OTG_GetMode)
    USB_OTG_HC_DoPing                        0x08003b3d   Thumb Code    90  usb_core.o(i.USB_OTG_HC_DoPing)
    USB_OTG_HC_Halt                          0x08003b97   Thumb Code   130  usb_core.o(i.USB_OTG_HC_Halt)
    USB_OTG_HC_Init                          0x08003c19   Thumb Code   568  usb_core.o(i.USB_OTG_HC_Init)
    USB_OTG_HC_StartXfer                     0x08003e51   Thumb Code   502  usb_core.o(i.USB_OTG_HC_StartXfer)
    USB_OTG_InitFSLSPClkSel                  0x08004047   Thumb Code    24  usb_core.o(i.USB_OTG_InitFSLSPClkSel)
    USB_OTG_IsEvenFrame                      0x0800405f   Thumb Code    16  usb_core.o(i.USB_OTG_IsEvenFrame)
    USB_OTG_IsHostMode                       0x0800406f   Thumb Code    20  usb_core.o(i.USB_OTG_IsHostMode)
    USB_OTG_ReadCoreItr                      0x08004083   Thumb Code    16  usb_core.o(i.USB_OTG_ReadCoreItr)
    USB_OTG_ReadHPRT0                        0x08004093   Thumb Code    48  usb_core.o(i.USB_OTG_ReadHPRT0)
    USB_OTG_ReadHostAllChannels_intr         0x080040c3   Thumb Code     8  usb_core.o(i.USB_OTG_ReadHostAllChannels_intr)
    USB_OTG_ReadPacket                       0x080040cb   Thumb Code    40  usb_core.o(i.USB_OTG_ReadPacket)
    USB_OTG_ResetPort                        0x080040f3   Thumb Code    64  usb_core.o(i.USB_OTG_ResetPort)
    USB_OTG_SelectCore                       0x08004135   Thumb Code   204  usb_core.o(i.USB_OTG_SelectCore)
    USB_OTG_SetCurrentMode                   0x08004205   Thumb Code    78  usb_core.o(i.USB_OTG_SetCurrentMode)
    USB_OTG_WritePacket                      0x08005025   Thumb Code    64  usb_core.o(i.USB_OTG_WritePacket)
    USH_User_App                             0x08005065   Thumb Code   424  usbh_usr.o(i.USH_User_App)
    UpdateHMI                                0x080052c1   Thumb Code   190  usbh_usr.o(i.UpdateHMI)
    UpdateHMIByFileIndex                     0x08005489   Thumb Code   560  usbh_usr.o(i.UpdateHMIByFileIndex)
    UpdateHMI_Image                          0x08005779   Thumb Code   626  usbh_usr.o(i.UpdateHMI_Image)
    UsageFault_Handler                       0x08005ac1   Thumb Code     8  stm32f4xx_it.o(i.UsageFault_Handler)
    __0printf                                0x08005ac9   Thumb Code    22  printfa.o(i.__0printf)
    __1printf                                0x08005ac9   Thumb Code     0  printfa.o(i.__0printf)
    __2printf                                0x08005ac9   Thumb Code     0  printfa.o(i.__0printf)
    __c89printf                              0x08005ac9   Thumb Code     0  printfa.o(i.__0printf)
    printf                                   0x08005ac9   Thumb Code     0  printfa.o(i.__0printf)
    __0sprintf                               0x08005ae9   Thumb Code    34  printfa.o(i.__0sprintf)
    __1sprintf                               0x08005ae9   Thumb Code     0  printfa.o(i.__0sprintf)
    __2sprintf                               0x08005ae9   Thumb Code     0  printfa.o(i.__0sprintf)
    __c89sprintf                             0x08005ae9   Thumb Code     0  printfa.o(i.__0sprintf)
    sprintf                                  0x08005ae9   Thumb Code     0  printfa.o(i.__0sprintf)
    __scatterload_copy                       0x08005b11   Thumb Code    14  handlers.o(i.__scatterload_copy)
    __scatterload_null                       0x08005b1f   Thumb Code     2  handlers.o(i.__scatterload_null)
    __scatterload_zeroinit                   0x08005b21   Thumb Code    14  handlers.o(i.__scatterload_zeroinit)
    clust2sect                               0x080064a1   Thumb Code    26  ff.o(i.clust2sect)
    delay_init                               0x08006895   Thumb Code    52  delay.o(i.delay_init)
    delay_ms                                 0x080068d1   Thumb Code    56  delay.o(i.delay_ms)
    delay_us                                 0x08006909   Thumb Code    72  delay.o(i.delay_us)
    delay_xms                                0x08006955   Thumb Code    72  delay.o(i.delay_xms)
    dir_sdi                                  0x08006d4d   Thumb Code   200  ff.o(i.dir_sdi)
    disk_initialize                          0x08006e15   Thumb Code    52  diskio.o(i.disk_initialize)
    disk_ioctl                               0x08006e49   Thumb Code   172  diskio.o(i.disk_ioctl)
    disk_read                                0x08006efd   Thumb Code    76  diskio.o(i.disk_read)
    disk_status                              0x08006f49   Thumb Code     6  diskio.o(i.disk_status)
    disk_write                               0x08006f4f   Thumb Code    76  diskio.o(i.disk_write)
    exfuns_init                              0x08006f9d   Thumb Code   114  exfuns.o(i.exfuns_init)
    f_close                                  0x08007021   Thumb Code    36  ff.o(i.f_close)
    f_mount                                  0x08007045   Thumb Code    86  ff.o(i.f_mount)
    f_open                                   0x080070a1   Thumb Code   384  ff.o(i.f_open)
    f_read                                   0x08007221   Thumb Code   482  ff.o(i.f_read)
    f_sync                                   0x08007403   Thumb Code   176  ff.o(i.f_sync)
    ff_convert                               0x080074b5   Thumb Code   116  cc936.o(i.ff_convert)
    ff_memalloc                              0x08007531   Thumb Code    14  diskio.o(i.ff_memalloc)
    ff_memfree                               0x0800753f   Thumb Code    14  diskio.o(i.ff_memfree)
    ff_wtoupper                              0x0800754d   Thumb Code    46  cc936.o(i.ff_wtoupper)
    fputc                                    0x08007a5d   Thumb Code     4  usart.o(i.fputc)
    get_fat                                  0x08007b29   Thumb Code   306  ff.o(i.get_fat)
    get_fattime                              0x08007c5b   Thumb Code     4  diskio.o(i.get_fattime)
    iap_load_app                             0x08007ca9   Thumb Code    36  iap.o(i.iap_load_app)
    iap_write_appbin                         0x08007cd5   Thumb Code   100  iap.o(i.iap_write_appbin)
    main                                     0x08007d5d   Thumb Code   138  main.o(i.main)
    my_mem_free                              0x08007ed1   Thumb Code    96  malloc.o(i.my_mem_free)
    my_mem_init                              0x08007f3d   Thumb Code    54  malloc.o(i.my_mem_init)
    my_mem_malloc                            0x08007f81   Thumb Code   156  malloc.o(i.my_mem_malloc)
    my_mem_perused                           0x08008029   Thumb Code    54  malloc.o(i.my_mem_perused)
    myfree                                   0x08008069   Thumb Code    30  malloc.o(i.myfree)
    mymalloc                                 0x0800808d   Thumb Code    34  malloc.o(i.mymalloc)
    mymemset                                 0x080080b5   Thumb Code    20  malloc.o(i.mymemset)
    put_fat                                  0x080080c9   Thumb Code   384  ff.o(i.put_fat)
    queue_find_cmd                           0x08008249   Thumb Code   122  cmd_queue.o(i.queue_find_cmd)
    queue_push                               0x08008301   Thumb Code    44  cmd_queue.o(i.queue_push)
    queue_reset                              0x08008331   Thumb Code    18  cmd_queue.o(i.queue_reset)
    memtblsize                               0x0803325c   Data          12  malloc.o(.constdata)
    memblksize                               0x08033268   Data          12  malloc.o(.constdata)
    memsize                                  0x08033274   Data          12  malloc.o(.constdata)
    Region$$Table$$Base                      0x08033280   Number         0  anon$$obj.o(Region$$Table)
    Region$$Table$$Limit                     0x080332a0   Number         0  anon$$obj.o(Region$$Table)
    mem3base                                 0x10000000   Data       61440  malloc.o(.ARM.__AT_0x10000000)
    mem3mapbase                              0x1000f000   Data        3840  malloc.o(.ARM.__AT_0x1000F000)
    Start_Loop                               0x20000000   Data           4  main.o(.data)
    jump2app                                 0x20000004   Data           4  iap.o(.data)
    iap_pos                                  0x20000008   Data           4  iap.o(.data)
    USBH_HCD_INT_cb                          0x2000000c   Data          12  usbh_core.o(.data)
    USBH_HCD_INT_fops                        0x20000018   Data           4  usbh_core.o(.data)
    MSC_Setup                                0x20000038   Data           8  usbh_msc_core.o(.data)
    MSCErrorCount                            0x20000040   Data           1  usbh_msc_core.o(.data)
    USBH_MSC_cb                              0x20000044   Data          16  usbh_msc_core.o(.data)
    Update_HMI_Status                        0x20000058   Data           1  usbh_usr.o(.data)
    HMI_Update_Index                         0x20000059   Data           1  usbh_usr.o(.data)
    Detect_USB                               0x2000005a   Data           1  usbh_usr.o(.data)
    jump_flag                                0x2000005b   Data           1  usbh_usr.o(.data)
    answer                                   0x2000005d   Data           1  usbh_usr.o(.data)
    LoadImageIndex                           0x2000005e   Data           1  usbh_usr.o(.data)
    MAX_INDEX                                0x20000060   Data           2  usbh_usr.o(.data)
    USR_Callbacks                            0x20000064   Data          72  usbh_usr.o(.data)
    cmd_Updata_Mark                          0x200000b8   Data           1  usart.o(.data)
    HMI_MAIN_INDEX                           0x200000b9   Data           1  usart.o(.data)
    HMI_UPGRAD_INDEX                         0x200000ba   Data           1  usart.o(.data)
    HMI_PROGRAS_CONTROL_INDEX                0x200000bb   Data           1  usart.o(.data)
    HMI_ENTRY_BUTTON_INDEX                   0x200000bc   Data           1  usart.o(.data)
    HMI_CANCEL_BUTTON_INDEX                  0x200000bd   Data           1  usart.o(.data)
    __stdout                                 0x200000c0   Data           4  usart.o(.data)
    FLASH_SECTOR_COUNT                       0x200000c4   Data           2  diskio.o(.data)
    file                                     0x200000c8   Data           4  exfuns.o(.data)
    ftemp                                    0x200000cc   Data           4  exfuns.o(.data)
    br                                       0x200000d0   Data           4  exfuns.o(.data)
    bw                                       0x200000d4   Data           4  exfuns.o(.data)
    fatbuf                                   0x200000d8   Data           4  exfuns.o(.data)
    mallco_dev                               0x200000ec   Data          36  malloc.o(.data)
    USB_Host                                 0x20000110   Data         132  bsp.o(.bss)
    USB_OTG_Core                             0x20000194   Data        1452  bsp.o(.bss)
    iapbuf                                   0x20000740   Data        2048  iap.o(.bss)
    USBH_CfgDesc                             0x20000f40   Data         512  usbh_stdreq.o(.bss)
    USBH_MSC_CBWData                         0x20001140   Data          32  usbh_msc_bot.o(.bss)
    USBH_MSC_CSWData                         0x20001160   Data          16  usbh_msc_bot.o(.bss)
    USBH_MSC_BOTXferParam                    0x20001170   Data          16  usbh_msc_bot.o(.bss)
    MSC_Machine                              0x20001180   Data          74  usbh_msc_core.o(.bss)
    USBH_MSC_Param                           0x200011cc   Data          16  usbh_msc_scsi.o(.bss)
    USBH_DataInBuffer                        0x200011dc   Data         512  usbh_msc_scsi.o(.bss)
    USBH_DataOutBuffer                       0x200013dc   Data         512  usbh_msc_scsi.o(.bss)
    update_buf                               0x200015dc   Data        2048  usbh_usr.o(.bss)
    updateRead_buf                           0x20001ddc   Data        2048  usbh_usr.o(.bss)
    hmi_Image_Index_Data                     0x200025dc   Data         800  usbh_usr.o(.bss)
    buffer                                   0x200028fc   Data          30  usbh_usr.o(.bss)
    cmd_buffer                               0x20002d1e   Data         500  hmi_app.o(.bss)
    fs                                       0x20002f20   Data          12  exfuns.o(.bss)
    fileinfo                                 0x20002f2c   Data          32  exfuns.o(.bss)
    dir                                      0x20002f4c   Data          36  exfuns.o(.bss)
    mem1base                                 0x20002f80   Data       102400  malloc.o(.bss)
    mem1mapbase                              0x2001bf80   Data        6400  malloc.o(.bss)
    __initial_sp                             0x2001dc80   Data           0  startup_stm32f40_41xxx.o(STACK)
    mem2base                                 0x68000000   Data       983040  malloc.o(.ARM.__AT_0x68000000)
    mem2mapbase                              0x680f0000   Data       61440  malloc.o(.ARM.__AT_0x680F0000)



==============================================================================

Memory Map of the image

  Image Entry point : 0x08000189

  Load Region LR_IROM1 (Base: 0x08000000, Size: 0x000333b0, Max: 0x00100000, ABSOLUTE)

    Execution Region ER_IROM1 (Exec base: 0x08000000, Load base: 0x08000000, Size: 0x000332a0, Max: 0x00100000, ABSOLUTE)

    Exec Addr    Load Addr    Size         Type   Attr      Idx    E Section Name        Object

    0x08000000   0x08000000   0x00000188   Data   RO         3221    RESET               startup_stm32f40_41xxx.o
    0x08000188   0x08000188   0x00000000   Code   RO         4479  * .ARM.Collect$$$$00000000  mc_w.l(entry.o)
    0x08000188   0x08000188   0x00000004   Code   RO         4751    .ARM.Collect$$$$00000001  mc_w.l(entry2.o)
    0x0800018c   0x0800018c   0x00000004   Code   RO         4754    .ARM.Collect$$$$00000004  mc_w.l(entry5.o)
    0x08000190   0x08000190   0x00000000   Code   RO         4756    .ARM.Collect$$$$00000008  mc_w.l(entry7b.o)
    0x08000190   0x08000190   0x00000000   Code   RO         4758    .ARM.Collect$$$$0000000A  mc_w.l(entry8b.o)
    0x08000190   0x08000190   0x00000008   Code   RO         4759    .ARM.Collect$$$$0000000B  mc_w.l(entry9a.o)
    0x08000198   0x08000198   0x00000004   Code   RO         4766    .ARM.Collect$$$$0000000E  mc_w.l(entry12b.o)
    0x0800019c   0x0800019c   0x00000000   Code   RO         4761    .ARM.Collect$$$$0000000F  mc_w.l(entry10a.o)
    0x0800019c   0x0800019c   0x00000000   Code   RO         4763    .ARM.Collect$$$$00000011  mc_w.l(entry11a.o)
    0x0800019c   0x0800019c   0x00000004   Code   RO         4752    .ARM.Collect$$$$00002712  mc_w.l(entry2.o)
    0x080001a0   0x080001a0   0x00000010   Code   RO         1482    .emb_text           sys.o
    0x080001b0   0x080001b0   0x00000024   Code   RO         3222    .text               startup_stm32f40_41xxx.o
    0x080001d4   0x080001d4   0x00000026   Code   RO         4749    .text               mf_w.l(f2d.o)
    0x080001fa   0x080001fa   0x0000002c   Code   RO         4767    .text               mc_w.l(uidiv.o)
    0x08000226   0x08000226   0x00000062   Code   RO         4769    .text               mc_w.l(uldiv.o)
    0x08000288   0x08000288   0x00000000   Code   RO         4771    .text               mc_w.l(iusefp.o)
    0x08000288   0x08000288   0x0000014e   Code   RO         4772    .text               mf_w.l(dadd.o)
    0x080003d6   0x080003d6   0x000000e4   Code   RO         4774    .text               mf_w.l(dmul.o)
    0x080004ba   0x080004ba   0x000000de   Code   RO         4776    .text               mf_w.l(ddiv.o)
    0x08000598   0x08000598   0x00000030   Code   RO         4778    .text               mf_w.l(dfixul.o)
    0x080005c8   0x080005c8   0x00000030   Code   RO         4780    .text               mf_w.l(cdrcmple.o)
    0x080005f8   0x080005f8   0x00000024   Code   RO         4782    .text               mc_w.l(init.o)
    0x0800061c   0x0800061c   0x0000001e   Code   RO         4784    .text               mc_w.l(llshl.o)
    0x0800063a   0x0800063a   0x00000020   Code   RO         4786    .text               mc_w.l(llushr.o)
    0x0800065a   0x0800065a   0x00000024   Code   RO         4788    .text               mc_w.l(llsshr.o)
    0x0800067e   0x0800067e   0x000000ba   Code   RO         4790    .text               mf_w.l(depilogue.o)
    0x08000738   0x08000738   0x00000002   Code   RO         4453    i.BELL_Work         bell.o
    0x0800073a   0x0800073a   0x00000002   PAD
    0x0800073c   0x0800073c   0x00000140   Code   RO          258    i.BSP_Init          bsp.o
    0x0800087c   0x0800087c   0x00000020   Code   RO         1640    i.BeginUpdateHMI    hmi_driver.o
    0x0800089c   0x0800089c   0x00000008   Code   RO         3122    i.BusFault_Handler  stm32f4xx_it.o
    0x080008a4   0x080008a4   0x000000e8   Code   RO         1158    i.CheckHMIUpdateFiles  usbh_usr.o
    0x0800098c   0x0800098c   0x000000f0   Code   RO         1159    i.Check_HMI_Image_Index  usbh_usr.o
    0x08000a7c   0x08000a7c   0x00000002   Code   RO         3123    i.DebugMon_Handler  stm32f4xx_it.o
    0x08000a7e   0x08000a7e   0x00000002   PAD
    0x08000a80   0x08000a80   0x00000018   Code   RO         1652    i.EndUpdateHMI      hmi_driver.o
    0x08000a98   0x08000a98   0x00000024   Code   RO         3335    i.FLASH_DataCacheCmd  stm32f4xx_flash.o
    0x08000abc   0x08000abc   0x00000088   Code   RO         3340    i.FLASH_EraseSector  stm32f4xx_flash.o
    0x08000b44   0x08000b44   0x00000054   Code   RO         3342    i.FLASH_GetStatus   stm32f4xx_flash.o
    0x08000b98   0x08000b98   0x00000014   Code   RO         3346    i.FLASH_Lock        stm32f4xx_flash.o
    0x08000bac   0x08000bac   0x00000050   Code   RO         3370    i.FLASH_ProgramWord  stm32f4xx_flash.o
    0x08000bfc   0x08000bfc   0x00000024   Code   RO         3372    i.FLASH_Unlock      stm32f4xx_flash.o
    0x08000c20   0x08000c20   0x00000022   Code   RO         3373    i.FLASH_WaitForLastOperation  stm32f4xx_flash.o
    0x08000c42   0x08000c42   0x00000002   PAD
    0x08000c44   0x08000c44   0x0000003c   Code   RO          259    i.GOIO_OUT_Init     bsp.o
    0x08000c80   0x08000c80   0x00000090   Code   RO         3589    i.GPIO_Init         stm32f4xx_gpio.o
    0x08000d10   0x08000d10   0x00000046   Code   RO         3590    i.GPIO_PinAFConfig  stm32f4xx_gpio.o
    0x08000d56   0x08000d56   0x00000004   Code   RO         3596    i.GPIO_ResetBits    stm32f4xx_gpio.o
    0x08000d5a   0x08000d5a   0x0000000a   Code   RO          368    i.HCD_GetCurrentFrame  usb_hcd.o
    0x08000d64   0x08000d64   0x00000014   Code   RO          369    i.HCD_GetCurrentSpeed  usb_hcd.o
    0x08000d78   0x08000d78   0x0000000a   Code   RO          371    i.HCD_GetURB_State  usb_hcd.o
    0x08000d82   0x08000d82   0x0000000c   Code   RO          372    i.HCD_GetXferCnt    usb_hcd.o
    0x08000d8e   0x08000d8e   0x00000060   Code   RO          374    i.HCD_Init          usb_hcd.o
    0x08000dee   0x08000dee   0x00000008   Code   RO          375    i.HCD_IsDeviceConnected  usb_hcd.o
    0x08000df6   0x08000df6   0x0000000e   Code   RO          376    i.HCD_ResetPort     usb_hcd.o
    0x08000e04   0x08000e04   0x00000020   Code   RO          377    i.HCD_SubmitRequest  usb_hcd.o
    0x08000e24   0x08000e24   0x00000030   Code   RO         2241    i.HMI_SendSingleChar  usart.o
    0x08000e54   0x08000e54   0x000000b4   Code   RO         2242    i.HMI_USART_Init    usart.o
    0x08000f08   0x08000f08   0x00000008   Code   RO         3124    i.HardFault_Handler  stm32f4xx_it.o
    0x08000f10   0x08000f10   0x00000008   Code   RO         3125    i.MemManage_Handler  stm32f4xx_it.o
    0x08000f18   0x08000f18   0x00000002   Code   RO         3126    i.NMI_Handler       stm32f4xx_it.o
    0x08000f1a   0x08000f1a   0x00000002   PAD
    0x08000f1c   0x08000f1c   0x00000078   Code   RO         3228    i.NVIC_Init         misc.o
    0x08000f94   0x08000f94   0x00000014   Code   RO         3229    i.NVIC_PriorityGroupConfig  misc.o
    0x08000fa8   0x08000fa8   0x00000014   Code   RO         3230    i.NVIC_SetVectorTable  misc.o
    0x08000fbc   0x08000fbc   0x00000028   Code   RO         3127    i.NVIC_SystemReset  stm32f4xx_it.o
    0x08000fe4   0x08000fe4   0x0000003c   Code   RO         1569    i.NotifyButton      hmi_app.o
    0x08001020   0x08001020   0x00000014   Code   RO         1570    i.NotifyScreen      hmi_app.o
    0x08001034   0x08001034   0x00000010   Code   RO         1163    i.OTG_FS_IRQHandler  usbh_usr.o
    0x08001044   0x08001044   0x0000004c   Code   RO         1572    i.ProcessMessage    hmi_app.o
    0x08001090   0x08001090   0x00000020   Code   RO         3686    i.RCC_AHB1PeriphClockCmd  stm32f4xx_rcc.o
    0x080010b0   0x080010b0   0x00000020   Code   RO         3689    i.RCC_AHB2PeriphClockCmd  stm32f4xx_rcc.o
    0x080010d0   0x080010d0   0x00000020   Code   RO         3697    i.RCC_APB1PeriphResetCmd  stm32f4xx_rcc.o
    0x080010f0   0x080010f0   0x00000020   Code   RO         3698    i.RCC_APB2PeriphClockCmd  stm32f4xx_rcc.o
    0x08001110   0x08001110   0x00000020   Code   RO         3700    i.RCC_APB2PeriphResetCmd  stm32f4xx_rcc.o
    0x08001130   0x08001130   0x000000e8   Code   RO         3707    i.RCC_GetClocksFreq  stm32f4xx_rcc.o
    0x08001218   0x08001218   0x00000048   Code   RO         1681    i.RSRT              hmi_driver.o
    0x08001260   0x08001260   0x00000028   Code   RO         1682    i.ReadImgIdx        hmi_driver.o
    0x08001288   0x08001288   0x000000a0   Code   RO          327    i.STMFLASH_GetFlashSector  stmflash.o
    0x08001328   0x08001328   0x00000006   Code   RO          329    i.STMFLASH_ReadWord  stmflash.o
    0x0800132e   0x0800132e   0x00000002   PAD
    0x08001330   0x08001330   0x00000098   Code   RO          330    i.STMFLASH_Write    stmflash.o
    0x080013c8   0x080013c8   0x00000024   Code   RO         1685    i.SendFiledData     hmi_driver.o
    0x080013ec   0x080013ec   0x0000001a   Code   RO         1687    i.SendNU8           hmi_driver.o
    0x08001406   0x08001406   0x00000068   Code   RO         1706    i.SetProgressValue  hmi_driver.o
    0x0800146e   0x0800146e   0x0000003c   Code   RO         1707    i.SetScreen         hmi_driver.o
    0x080014aa   0x080014aa   0x00000002   PAD
    0x080014ac   0x080014ac   0x000000ec   Code   RO         3184    i.SetSysClock       system_stm32f4xx.o
    0x08001598   0x08001598   0x00000028   Code   RO         3232    i.SysTick_CLKSourceConfig  misc.o
    0x080015c0   0x080015c0   0x00000068   Code   RO         3186    i.SystemInit        system_stm32f4xx.o
    0x08001628   0x08001628   0x0000006c   Code   RO         2243    i.USART1_IRQHandler  usart.o
    0x08001694   0x08001694   0x00000012   Code   RO         4020    i.USART_ClearFlag   stm32f4xx_usart.o
    0x080016a6   0x080016a6   0x0000001e   Code   RO         4021    i.USART_ClearITPendingBit  stm32f4xx_usart.o
    0x080016c4   0x080016c4   0x00000018   Code   RO         4024    i.USART_Cmd         stm32f4xx_usart.o
    0x080016dc   0x080016dc   0x000000f0   Code   RO         4026    i.USART_DeInit      stm32f4xx_usart.o
    0x080017cc   0x080017cc   0x0000001a   Code   RO         4027    i.USART_GetFlagStatus  stm32f4xx_usart.o
    0x080017e6   0x080017e6   0x00000054   Code   RO         4028    i.USART_GetITStatus  stm32f4xx_usart.o
    0x0800183a   0x0800183a   0x0000004a   Code   RO         4030    i.USART_ITConfig    stm32f4xx_usart.o
    0x08001884   0x08001884   0x000000d4   Code   RO         4031    i.USART_Init        stm32f4xx_usart.o
    0x08001958   0x08001958   0x0000000a   Code   RO         4038    i.USART_ReceiveData  stm32f4xx_usart.o
    0x08001962   0x08001962   0x00000008   Code   RO         4041    i.USART_SendData    stm32f4xx_usart.o
    0x0800196a   0x0800196a   0x00000026   Code   RO          771    i.USBH_Alloc_Channel  usbh_hcs.o
    0x08001990   0x08001990   0x00000060   Code   RO          820    i.USBH_BulkReceiveData  usbh_ioreq.o
    0x080019f0   0x080019f0   0x0000005e   Code   RO          821    i.USBH_BulkSendData  usbh_ioreq.o
    0x08001a4e   0x08001a4e   0x0000004c   Code   RO          899    i.USBH_ClrFeature   usbh_stdreq.o
    0x08001a9a   0x08001a9a   0x0000000c   Code   RO          698    i.USBH_Connected    usbh_core.o
    0x08001aa6   0x08001aa6   0x00000046   Code   RO          822    i.USBH_CtlReceiveData  usbh_ioreq.o
    0x08001aec   0x08001aec   0x00000064   Code   RO          823    i.USBH_CtlReq       usbh_ioreq.o
    0x08001b50   0x08001b50   0x0000006e   Code   RO          824    i.USBH_CtlSendData  usbh_ioreq.o
    0x08001bbe   0x08001bbe   0x00000042   Code   RO          825    i.USBH_CtlSendSetup  usbh_ioreq.o
    0x08001c00   0x08001c00   0x0000001c   Code   RO          772    i.USBH_DeAllocate_AllChannel  usbh_hcs.o
    0x08001c1c   0x08001c1c   0x0000003a   Code   RO          699    i.USBH_DeInit       usbh_core.o
    0x08001c56   0x08001c56   0x0000000c   Code   RO          700    i.USBH_Disconnected  usbh_core.o
    0x08001c62   0x08001c62   0x0000002e   Code   RO          701    i.USBH_ErrorHandle  usbh_core.o
    0x08001c90   0x08001c90   0x0000001e   Code   RO          773    i.USBH_Free_Channel  usbh_hcs.o
    0x08001cae   0x08001cae   0x00000044   Code   RO          900    i.USBH_GetDescriptor  usbh_stdreq.o
    0x08001cf2   0x08001cf2   0x00000028   Code   RO          774    i.USBH_GetFreeChannel  usbh_hcs.o
    0x08001d1a   0x08001d1a   0x00000012   Code   RO          901    i.USBH_GetNextDesc  usbh_stdreq.o
    0x08001d2c   0x08001d2c   0x0000005c   Code   RO          902    i.USBH_Get_CfgDesc  usbh_stdreq.o
    0x08001d88   0x08001d88   0x00000038   Code   RO          903    i.USBH_Get_DevDesc  usbh_stdreq.o
    0x08001dc0   0x08001dc0   0x0000003c   Code   RO          904    i.USBH_Get_StringDesc  usbh_stdreq.o
    0x08001dfc   0x08001dfc   0x00000224   Code   RO          702    i.USBH_HandleControl  usbh_core.o
    0x08002020   0x08002020   0x000001dc   Code   RO          703    i.USBH_HandleEnum   usbh_core.o
    0x080021fc   0x080021fc   0x00000044   Code   RO          704    i.USBH_Init         usbh_core.o
    0x08002240   0x08002240   0x00000024   Code   RO         1044    i.USBH_MSC_BOTReset  usbh_msc_core.o
    0x08002264   0x08002264   0x00000060   Code   RO          999    i.USBH_MSC_BOT_Abort  usbh_msc_bot.o
    0x080022c4   0x080022c4   0x00000014   Code   RO         1045    i.USBH_MSC_ClassRequest  usbh_msc_core.o
    0x080022d8   0x080022d8   0x00000080   Code   RO         1000    i.USBH_MSC_DecodeCSW  usbh_msc_bot.o
    0x08002358   0x08002358   0x00000044   Code   RO         1046    i.USBH_MSC_ErrorHandle  usbh_msc_core.o
    0x0800239c   0x0800239c   0x0000002c   Code   RO         1047    i.USBH_MSC_GETMaxLUN  usbh_msc_core.o
    0x080023c8   0x080023c8   0x000001a8   Code   RO         1048    i.USBH_MSC_Handle   usbh_msc_core.o
    0x08002570   0x08002570   0x00000350   Code   RO         1001    i.USBH_MSC_HandleBOTXfer  usbh_msc_bot.o
    0x080028c0   0x080028c0   0x00000044   Code   RO         1002    i.USBH_MSC_Init     usbh_msc_bot.o
    0x08002904   0x08002904   0x0000004c   Code   RO         1049    i.USBH_MSC_InterfaceDeInit  usbh_msc_core.o
    0x08002950   0x08002950   0x000000d0   Code   RO         1050    i.USBH_MSC_InterfaceInit  usbh_msc_core.o
    0x08002a20   0x08002a20   0x000000d0   Code   RO         1101    i.USBH_MSC_ModeSense6  usbh_msc_scsi.o
    0x08002af0   0x08002af0   0x00000100   Code   RO         1102    i.USBH_MSC_Read10   usbh_msc_scsi.o
    0x08002bf0   0x08002bf0   0x000000dc   Code   RO         1103    i.USBH_MSC_ReadCapacity10  usbh_msc_scsi.o
    0x08002ccc   0x08002ccc   0x000000e0   Code   RO         1104    i.USBH_MSC_RequestSense  usbh_msc_scsi.o
    0x08002dac   0x08002dac   0x000000b0   Code   RO         1105    i.USBH_MSC_TestUnitReady  usbh_msc_scsi.o
    0x08002e5c   0x08002e5c   0x000000e4   Code   RO         1106    i.USBH_MSC_Write10  usbh_msc_scsi.o
    0x08002f40   0x08002f40   0x00000064   Code   RO          775    i.USBH_Modify_Channel  usbh_hcs.o
    0x08002fa4   0x08002fa4   0x000000a8   Code   RO          628    i.USBH_OTG_ISR_Handler  usb_hcd_int.o
    0x0800304c   0x0800304c   0x0000009a   Code   RO          776    i.USBH_Open_Channel  usbh_hcs.o
    0x080030e6   0x080030e6   0x00000002   PAD
    0x080030e8   0x080030e8   0x0000011c   Code   RO          905    i.USBH_ParseCfgDesc  usbh_stdreq.o
    0x08003204   0x08003204   0x00000058   Code   RO          906    i.USBH_ParseDevDesc  usbh_stdreq.o
    0x0800325c   0x0800325c   0x00000020   Code   RO          907    i.USBH_ParseEPDesc  usbh_stdreq.o
    0x0800327c   0x0800327c   0x00000026   Code   RO          908    i.USBH_ParseInterfaceDesc  usbh_stdreq.o
    0x080032a2   0x080032a2   0x00000036   Code   RO          909    i.USBH_ParseStringDesc  usbh_stdreq.o
    0x080032d8   0x080032d8   0x00000198   Code   RO          705    i.USBH_Process      usbh_core.o
    0x08003470   0x08003470   0x00000006   Code   RO          706    i.USBH_SOF          usbh_core.o
    0x08003476   0x08003476   0x00000026   Code   RO          910    i.USBH_SetAddress   usbh_stdreq.o
    0x0800349c   0x0800349c   0x00000026   Code   RO          911    i.USBH_SetCfg       usbh_stdreq.o
    0x080034c2   0x080034c2   0x00000018   Code   RO          830    i.USBH_SubmitSetupRequest  usbh_ioreq.o
    0x080034da   0x080034da   0x00000002   PAD
    0x080034dc   0x080034dc   0x00000060   Code   RO         1164    i.USBH_UDISK_Read   usbh_usr.o
    0x0800353c   0x0800353c   0x00000010   Code   RO         1165    i.USBH_UDISK_Status  usbh_usr.o
    0x0800354c   0x0800354c   0x00000060   Code   RO         1166    i.USBH_UDISK_Write  usbh_usr.o
    0x080035ac   0x080035ac   0x00000010   Code   RO         1167    i.USBH_USR_Configuration_DescAvailable  usbh_usr.o
    0x080035bc   0x080035bc   0x0000000c   Code   RO         1168    i.USBH_USR_DeInit   usbh_usr.o
    0x080035c8   0x080035c8   0x00000002   Code   RO         1169    i.USBH_USR_DeviceAddressAssigned  usbh_usr.o
    0x080035ca   0x080035ca   0x00000002   Code   RO         1170    i.USBH_USR_DeviceAttached  usbh_usr.o
    0x080035cc   0x080035cc   0x00000002   Code   RO         1171    i.USBH_USR_DeviceDisconnected  usbh_usr.o
    0x080035ce   0x080035ce   0x00000002   Code   RO         1172    i.USBH_USR_DeviceNotSupported  usbh_usr.o
    0x080035d0   0x080035d0   0x0000000a   Code   RO         1173    i.USBH_USR_DeviceSpeedDetected  usbh_usr.o
    0x080035da   0x080035da   0x00000002   Code   RO         1174    i.USBH_USR_Device_DescAvailable  usbh_usr.o
    0x080035dc   0x080035dc   0x00000020   Code   RO         1175    i.USBH_USR_EnumerationDone  usbh_usr.o
    0x080035fc   0x080035fc   0x00000002   Code   RO         1176    i.USBH_USR_Init     usbh_usr.o
    0x080035fe   0x080035fe   0x00000002   PAD
    0x08003600   0x08003600   0x00000038   Code   RO         1177    i.USBH_USR_MSC_Application  usbh_usr.o
    0x08003638   0x08003638   0x00000002   Code   RO         1178    i.USBH_USR_Manufacturer_String  usbh_usr.o
    0x0800363a   0x0800363a   0x00000002   Code   RO         1179    i.USBH_USR_OverCurrentDetected  usbh_usr.o
    0x0800363c   0x0800363c   0x00000002   Code   RO         1180    i.USBH_USR_Product_String  usbh_usr.o
    0x0800363e   0x0800363e   0x00000002   Code   RO         1181    i.USBH_USR_ResetDevice  usbh_usr.o
    0x08003640   0x08003640   0x00000002   Code   RO         1182    i.USBH_USR_SerialNum_String  usbh_usr.o
    0x08003642   0x08003642   0x00000002   Code   RO         1183    i.USBH_USR_UnrecoveredError  usbh_usr.o
    0x08003644   0x08003644   0x00000004   Code   RO         1184    i.USBH_USR_UserInput  usbh_usr.o
    0x08003648   0x08003648   0x00000002   Code   RO         1377    i.USB_OTG_BSP_ConfigVBUS  usb_bsp.o
    0x0800364a   0x0800364a   0x00000002   Code   RO         1379    i.USB_OTG_BSP_DriveVBUS  usb_bsp.o
    0x0800364c   0x0800364c   0x00000024   Code   RO         1380    i.USB_OTG_BSP_EnableInterrupt  usb_bsp.o
    0x08003670   0x08003670   0x00000054   Code   RO         1381    i.USB_OTG_BSP_Init  usb_bsp.o
    0x080036c4   0x080036c4   0x0000000c   Code   RO         1382    i.USB_OTG_BSP_mDelay  usb_bsp.o
    0x080036d0   0x080036d0   0x0000000c   Code   RO         1383    i.USB_OTG_BSP_uDelay  usb_bsp.o
    0x080036dc   0x080036dc   0x00000126   Code   RO          442    i.USB_OTG_CoreInit  usb_core.o
    0x08003802   0x08003802   0x000000d6   Code   RO          443    i.USB_OTG_CoreInitHost  usb_core.o
    0x080038d8   0x080038d8   0x00000070   Code   RO          444    i.USB_OTG_CoreReset  usb_core.o
    0x08003948   0x08003948   0x00000022   Code   RO          445    i.USB_OTG_DisableGlobalInt  usb_core.o
    0x0800396a   0x0800396a   0x0000005c   Code   RO          446    i.USB_OTG_DriveVbus  usb_core.o
    0x080039c6   0x080039c6   0x00000034   Code   RO          447    i.USB_OTG_EnableCommonInt  usb_core.o
    0x080039fa   0x080039fa   0x00000022   Code   RO          448    i.USB_OTG_EnableGlobalInt  usb_core.o
    0x08003a1c   0x08003a1c   0x00000074   Code   RO          449    i.USB_OTG_EnableHostInt  usb_core.o
    0x08003a90   0x08003a90   0x0000004c   Code   RO          450    i.USB_OTG_FlushRxFifo  usb_core.o
    0x08003adc   0x08003adc   0x00000054   Code   RO          451    i.USB_OTG_FlushTxFifo  usb_core.o
    0x08003b30   0x08003b30   0x0000000c   Code   RO          452    i.USB_OTG_GetMode   usb_core.o
    0x08003b3c   0x08003b3c   0x0000005a   Code   RO          453    i.USB_OTG_HC_DoPing  usb_core.o
    0x08003b96   0x08003b96   0x00000082   Code   RO          454    i.USB_OTG_HC_Halt   usb_core.o
    0x08003c18   0x08003c18   0x00000238   Code   RO          455    i.USB_OTG_HC_Init   usb_core.o
    0x08003e50   0x08003e50   0x000001f6   Code   RO          456    i.USB_OTG_HC_StartXfer  usb_core.o
    0x08004046   0x08004046   0x00000018   Code   RO          457    i.USB_OTG_InitFSLSPClkSel  usb_core.o
    0x0800405e   0x0800405e   0x00000010   Code   RO          459    i.USB_OTG_IsEvenFrame  usb_core.o
    0x0800406e   0x0800406e   0x00000014   Code   RO          460    i.USB_OTG_IsHostMode  usb_core.o
    0x08004082   0x08004082   0x00000010   Code   RO          461    i.USB_OTG_ReadCoreItr  usb_core.o
    0x08004092   0x08004092   0x00000030   Code   RO          462    i.USB_OTG_ReadHPRT0  usb_core.o
    0x080040c2   0x080040c2   0x00000008   Code   RO          463    i.USB_OTG_ReadHostAllChannels_intr  usb_core.o
    0x080040ca   0x080040ca   0x00000028   Code   RO          465    i.USB_OTG_ReadPacket  usb_core.o
    0x080040f2   0x080040f2   0x00000040   Code   RO          466    i.USB_OTG_ResetPort  usb_core.o
    0x08004132   0x08004132   0x00000002   PAD
    0x08004134   0x08004134   0x000000d0   Code   RO          467    i.USB_OTG_SelectCore  usb_core.o
    0x08004204   0x08004204   0x0000004e   Code   RO          468    i.USB_OTG_SetCurrentMode  usb_core.o
    0x08004252   0x08004252   0x00000002   PAD
    0x08004254   0x08004254   0x0000002c   Code   RO          629    i.USB_OTG_USBH_handle_Disconnect_ISR  usb_hcd_int.o
    0x08004280   0x08004280   0x00000046   Code   RO          630    i.USB_OTG_USBH_handle_IncompletePeriodicXfer_ISR  usb_hcd_int.o
    0x080042c6   0x080042c6   0x00000056   Code   RO          631    i.USB_OTG_USBH_handle_hc_ISR  usb_hcd_int.o
    0x0800431c   0x0800431c   0x0000042a   Code   RO          632    i.USB_OTG_USBH_handle_hc_n_In_ISR  usb_hcd_int.o
    0x08004746   0x08004746   0x000003d0   Code   RO          633    i.USB_OTG_USBH_handle_hc_n_Out_ISR  usb_hcd_int.o
    0x08004b16   0x08004b16   0x0000012e   Code   RO          634    i.USB_OTG_USBH_handle_nptxfempty_ISR  usb_hcd_int.o
    0x08004c44   0x08004c44   0x00000120   Code   RO          635    i.USB_OTG_USBH_handle_port_ISR  usb_hcd_int.o
    0x08004d64   0x08004d64   0x0000012e   Code   RO          636    i.USB_OTG_USBH_handle_ptxfempty_ISR  usb_hcd_int.o
    0x08004e92   0x08004e92   0x00000164   Code   RO          637    i.USB_OTG_USBH_handle_rx_qlvl_ISR  usb_hcd_int.o
    0x08004ff6   0x08004ff6   0x00000002   PAD
    0x08004ff8   0x08004ff8   0x0000002c   Code   RO          638    i.USB_OTG_USBH_handle_sof_ISR  usb_hcd_int.o
    0x08005024   0x08005024   0x00000040   Code   RO          470    i.USB_OTG_WritePacket  usb_core.o
    0x08005064   0x08005064   0x0000025c   Code   RO         1185    i.USH_User_App      usbh_usr.o
    0x080052c0   0x080052c0   0x000001c8   Code   RO         1186    i.UpdateHMI         usbh_usr.o
    0x08005488   0x08005488   0x000002f0   Code   RO         1187    i.UpdateHMIByFileIndex  usbh_usr.o
    0x08005778   0x08005778   0x00000348   Code   RO         1188    i.UpdateHMI_Image   usbh_usr.o
    0x08005ac0   0x08005ac0   0x00000008   Code   RO         3128    i.UsageFault_Handler  stm32f4xx_it.o
    0x08005ac8   0x08005ac8   0x00000020   Code   RO         4721    i.__0printf         mc_w.l(printfa.o)
    0x08005ae8   0x08005ae8   0x00000028   Code   RO         4723    i.__0sprintf        mc_w.l(printfa.o)
    0x08005b10   0x08005b10   0x0000000e   Code   RO         4794    i.__scatterload_copy  mc_w.l(handlers.o)
    0x08005b1e   0x08005b1e   0x00000002   Code   RO         4795    i.__scatterload_null  mc_w.l(handlers.o)
    0x08005b20   0x08005b20   0x0000000e   Code   RO         4796    i.__scatterload_zeroinit  mc_w.l(handlers.o)
    0x08005b2e   0x08005b2e   0x00000002   PAD
    0x08005b30   0x08005b30   0x00000184   Code   RO         4728    i._fp_digits        mc_w.l(printfa.o)
    0x08005cb4   0x08005cb4   0x000006b4   Code   RO         4729    i._printf_core      mc_w.l(printfa.o)
    0x08006368   0x08006368   0x00000024   Code   RO         4730    i._printf_post_padding  mc_w.l(printfa.o)
    0x0800638c   0x0800638c   0x0000002e   Code   RO         4731    i._printf_pre_padding  mc_w.l(printfa.o)
    0x080063ba   0x080063ba   0x0000000a   Code   RO         4733    i._sputc            mc_w.l(printfa.o)
    0x080063c4   0x080063c4   0x00000090   Code   RO         2377    i.check_fs          ff.o
    0x08006454   0x08006454   0x00000014   Code   RO         2378    i.chk_chr           ff.o
    0x08006468   0x08006468   0x00000038   Code   RO         2379    i.clmt_clust        ff.o
    0x080064a0   0x080064a0   0x0000001a   Code   RO         2380    i.clust2sect        ff.o
    0x080064ba   0x080064ba   0x00000002   PAD
    0x080064bc   0x080064bc   0x00000090   Code   RO         2381    i.cmp_lfn           ff.o
    0x0800654c   0x0800654c   0x000000d6   Code   RO         2382    i.create_chain      ff.o
    0x08006622   0x08006622   0x00000002   PAD
    0x08006624   0x08006624   0x00000270   Code   RO         2383    i.create_name       ff.o
    0x08006894   0x08006894   0x0000003c   Code   RO         1436    i.delay_init        delay.o
    0x080068d0   0x080068d0   0x00000038   Code   RO         1437    i.delay_ms          delay.o
    0x08006908   0x08006908   0x0000004c   Code   RO         1438    i.delay_us          delay.o
    0x08006954   0x08006954   0x0000004c   Code   RO         1439    i.delay_xms         delay.o
    0x080069a0   0x080069a0   0x0000005c   Code   RO         2384    i.dir_alloc         ff.o
    0x080069fc   0x080069fc   0x000000ea   Code   RO         2385    i.dir_find          ff.o
    0x08006ae6   0x08006ae6   0x0000013c   Code   RO         2386    i.dir_next          ff.o
    0x08006c22   0x08006c22   0x0000012a   Code   RO         2388    i.dir_register      ff.o
    0x08006d4c   0x08006d4c   0x000000c8   Code   RO         2390    i.dir_sdi           ff.o
    0x08006e14   0x08006e14   0x00000034   Code   RO         2295    i.disk_initialize   diskio.o
    0x08006e48   0x08006e48   0x000000b4   Code   RO         2296    i.disk_ioctl        diskio.o
    0x08006efc   0x08006efc   0x0000004c   Code   RO         2297    i.disk_read         diskio.o
    0x08006f48   0x08006f48   0x00000006   Code   RO         2298    i.disk_status       diskio.o
    0x08006f4e   0x08006f4e   0x0000004c   Code   RO         2299    i.disk_write        diskio.o
    0x08006f9a   0x08006f9a   0x00000002   PAD
    0x08006f9c   0x08006f9c   0x00000084   Code   RO         2775    i.exfuns_init       exfuns.o
    0x08007020   0x08007020   0x00000024   Code   RO         2392    i.f_close           ff.o
    0x08007044   0x08007044   0x0000005c   Code   RO         2401    i.f_mount           ff.o
    0x080070a0   0x080070a0   0x00000180   Code   RO         2402    i.f_open            ff.o
    0x08007220   0x08007220   0x000001e2   Code   RO         2407    i.f_read            ff.o
    0x08007402   0x08007402   0x000000b0   Code   RO         2412    i.f_sync            ff.o
    0x080074b2   0x080074b2   0x00000002   PAD
    0x080074b4   0x080074b4   0x0000007c   Code   RO         2745    i.ff_convert        cc936.o
    0x08007530   0x08007530   0x0000000e   Code   RO         2300    i.ff_memalloc       diskio.o
    0x0800753e   0x0800753e   0x0000000e   Code   RO         2301    i.ff_memfree        diskio.o
    0x0800754c   0x0800754c   0x00000038   Code   RO         2746    i.ff_wtoupper       cc936.o
    0x08007584   0x08007584   0x000003c8   Code   RO         2417    i.find_volume       ff.o
    0x0800794c   0x0800794c   0x00000080   Code   RO         2418    i.fit_lfn           ff.o
    0x080079cc   0x080079cc   0x00000090   Code   RO         2419    i.follow_path       ff.o
    0x08007a5c   0x08007a5c   0x00000004   Code   RO         2245    i.fputc             usart.o
    0x08007a60   0x08007a60   0x000000c8   Code   RO         2420    i.gen_numname       ff.o
    0x08007b28   0x08007b28   0x00000132   Code   RO         2421    i.get_fat           ff.o
    0x08007c5a   0x08007c5a   0x00000004   Code   RO         2302    i.get_fattime       diskio.o
    0x08007c5e   0x08007c5e   0x0000004a   Code   RO         2423    i.get_ldnumber      ff.o
    0x08007ca8   0x08007ca8   0x0000002c   Code   RO          293    i.iap_load_app      iap.o
    0x08007cd4   0x08007cd4   0x00000068   Code   RO          294    i.iap_write_appbin  iap.o
    0x08007d3c   0x08007d3c   0x00000020   Code   RO         2424    i.ld_clust          ff.o
    0x08007d5c   0x08007d5c   0x000000ec   Code   RO            3    i.main              main.o
    0x08007e48   0x08007e48   0x00000026   Code   RO         2425    i.mem_cmp           ff.o
    0x08007e6e   0x08007e6e   0x0000001a   Code   RO         2426    i.mem_cpy           ff.o
    0x08007e88   0x08007e88   0x00000014   Code   RO         2427    i.mem_set           ff.o
    0x08007e9c   0x08007e9c   0x00000032   Code   RO         2429    i.move_window       ff.o
    0x08007ece   0x08007ece   0x00000002   PAD
    0x08007ed0   0x08007ed0   0x0000006c   Code   RO         4372    i.my_mem_free       malloc.o
    0x08007f3c   0x08007f3c   0x00000044   Code   RO         4373    i.my_mem_init       malloc.o
    0x08007f80   0x08007f80   0x000000a8   Code   RO         4374    i.my_mem_malloc     malloc.o
    0x08008028   0x08008028   0x00000040   Code   RO         4375    i.my_mem_perused    malloc.o
    0x08008068   0x08008068   0x00000024   Code   RO         4376    i.myfree            malloc.o
    0x0800808c   0x0800808c   0x00000028   Code   RO         4377    i.mymalloc          malloc.o
    0x080080b4   0x080080b4   0x00000014   Code   RO         4379    i.mymemset          malloc.o
    0x080080c8   0x080080c8   0x00000180   Code   RO         2431    i.put_fat           ff.o
    0x08008248   0x08008248   0x00000084   Code   RO         1519    i.queue_find_cmd    cmd_queue.o
    0x080082cc   0x080082cc   0x00000034   Code   RO         1520    i.queue_pop         cmd_queue.o
    0x08008300   0x08008300   0x00000030   Code   RO         1521    i.queue_push        cmd_queue.o
    0x08008330   0x08008330   0x00000020   Code   RO         1522    i.queue_reset       cmd_queue.o
    0x08008350   0x08008350   0x00000024   Code   RO         1523    i.queue_size        cmd_queue.o
    0x08008374   0x08008374   0x0000006c   Code   RO         2433    i.remove_chain      ff.o
    0x080083e0   0x080083e0   0x00000010   Code   RO         2434    i.st_clust          ff.o
    0x080083f0   0x080083f0   0x00000020   Code   RO         2435    i.sum_sfn           ff.o
    0x08008410   0x08008410   0x000000c8   Code   RO         2436    i.sync_fs           ff.o
    0x080084d8   0x080084d8   0x0000004c   Code   RO         2437    i.sync_window       ff.o
    0x08008524   0x08008524   0x00000036   Code   RO         2438    i.validate          ff.o
    0x0800855a   0x0800855a   0x0000003a   Data   RO         2440    .constdata          ff.o
    0x08008594   0x08008594   0x0002acc8   Data   RO         2747    .constdata          cc936.o
    0x0803325c   0x0803325c   0x00000024   Data   RO         4386    .constdata          malloc.o
    0x08033280   0x08033280   0x00000020   Data   RO         4792    Region$$Table       anon$$obj.o


    Execution Region RW_IRAM1 (Exec base: 0x20000000, Load base: 0x080332a0, Size: 0x0001dc80, Max: 0x00020000, ABSOLUTE)

    Exec Addr    Load Addr    Size         Type   Attr      Idx    E Section Name        Object

    0x20000000   0x080332a0   0x00000004   Data   RW            4    .data               main.o
    0x20000004   0x080332a4   0x00000008   Data   RW          296    .data               iap.o
    0x2000000c   0x080332ac   0x00000012   Data   RW          707    .data               usbh_core.o
    0x2000001e   0x080332be   0x00000003   Data   RW          914    .data               usbh_stdreq.o
    0x20000021   0x080332c1   0x00000003   PAD
    0x20000024   0x080332c4   0x00000011   Data   RW         1004    .data               usbh_msc_bot.o
    0x20000035   0x080332d5   0x00000003   PAD
    0x20000038   0x080332d8   0x0000001d   Data   RW         1052    .data               usbh_msc_core.o
    0x20000055   0x080332f5   0x00000001   Data   RW         1108    .data               usbh_msc_scsi.o
    0x20000056   0x080332f6   0x00000002   PAD
    0x20000058   0x080332f8   0x00000054   Data   RW         1190    .data               usbh_usr.o
    0x200000ac   0x0803334c   0x00000004   Data   RW         1440    .data               delay.o
    0x200000b0   0x08033350   0x00000006   Data   RW         1525    .data               cmd_queue.o
    0x200000b6   0x08033356   0x00000002   Data   RW         1576    .data               hmi_app.o
    0x200000b8   0x08033358   0x0000000c   Data   RW         2246    .data               usart.o
    0x200000c4   0x08033364   0x00000002   Data   RW         2303    .data               diskio.o
    0x200000c6   0x08033366   0x00000002   Data   RW         2441    .data               ff.o
    0x200000c8   0x08033368   0x00000014   Data   RW         2780    .data               exfuns.o
    0x200000dc   0x0803337c   0x00000010   Data   RW         3739    .data               stm32f4xx_rcc.o
    0x200000ec   0x0803338c   0x00000024   Data   RW         4387    .data               malloc.o
    0x20000110        -       0x00000630   Zero   RW          260    .bss                bsp.o
    0x20000740        -       0x00000800   Zero   RW          295    .bss                iap.o
    0x20000f40        -       0x00000200   Zero   RW          913    .bss                usbh_stdreq.o
    0x20001140        -       0x00000040   Zero   RW         1003    .bss                usbh_msc_bot.o
    0x20001180        -       0x0000004a   Zero   RW         1051    .bss                usbh_msc_core.o
    0x200011ca   0x080333b0   0x00000002   PAD
    0x200011cc        -       0x00000410   Zero   RW         1107    .bss                usbh_msc_scsi.o
    0x200015dc        -       0x0000133e   Zero   RW         1189    .bss                usbh_usr.o
    0x2000291a        -       0x00000404   Zero   RW         1524    .bss                cmd_queue.o
    0x20002d1e        -       0x000001f4   Zero   RW         1575    .bss                hmi_app.o
    0x20002f12   0x080333b0   0x00000002   PAD
    0x20002f14        -       0x0000000c   Zero   RW         2439    .bss                ff.o
    0x20002f20        -       0x00000050   Zero   RW         2777    .bss                exfuns.o
    0x20002f70   0x080333b0   0x00000010   PAD
    0x20002f80        -       0x0001a900   Zero   RW         4385    .bss                malloc.o
    0x2001d880        -       0x00000400   Zero   RW         3219    STACK               startup_stm32f40_41xxx.o



  Load Region LR$$.ARM.__AT_0x10000000 (Base: 0x10000000, Size: 0x00000000, Max: 0x0000f000, ABSOLUTE)

    Execution Region ER$$.ARM.__AT_0x10000000 (Exec base: 0x10000000, Load base: 0x10000000, Size: 0x0000f000, Max: 0x0000f000, ABSOLUTE, UNINIT)

    Exec Addr    Load Addr    Size         Type   Attr      Idx    E Section Name        Object

    0x10000000        -       0x0000f000   Zero   RW         4381    .ARM.__AT_0x10000000  malloc.o



  Load Region LR$$.ARM.__AT_0x1000F000 (Base: 0x1000f000, Size: 0x00000000, Max: 0x00000f00, ABSOLUTE)

    Execution Region ER$$.ARM.__AT_0x1000F000 (Exec base: 0x1000f000, Load base: 0x1000f000, Size: 0x00000f00, Max: 0x00000f00, ABSOLUTE, UNINIT)

    Exec Addr    Load Addr    Size         Type   Attr      Idx    E Section Name        Object

    0x1000f000        -       0x00000f00   Zero   RW         4382    .ARM.__AT_0x1000F000  malloc.o



  Load Region LR$$.ARM.__AT_0x68000000 (Base: 0x68000000, Size: 0x00000000, Max: 0x000f0000, ABSOLUTE)

    Execution Region ER$$.ARM.__AT_0x68000000 (Exec base: 0x68000000, Load base: 0x68000000, Size: 0x000f0000, Max: 0x000f0000, ABSOLUTE, UNINIT)

    Exec Addr    Load Addr    Size         Type   Attr      Idx    E Section Name        Object

    0x68000000        -       0x000f0000   Zero   RW         4383    .ARM.__AT_0x68000000  malloc.o



  Load Region LR$$.ARM.__AT_0x680F0000 (Base: 0x680f0000, Size: 0x00000000, Max: 0x0000f000, ABSOLUTE)

    Execution Region ER$$.ARM.__AT_0x680F0000 (Exec base: 0x680f0000, Load base: 0x680f0000, Size: 0x0000f000, Max: 0x0000f000, ABSOLUTE, UNINIT)

    Exec Addr    Load Addr    Size         Type   Attr      Idx    E Section Name        Object

    0x680f0000        -       0x0000f000   Zero   RW         4384    .ARM.__AT_0x680F0000  malloc.o


==============================================================================

Image component sizes


      Code (inc. data)   RO Data    RW Data    ZI Data      Debug   Object Name

         2          0          0          0          0        476   bell.o
       380        172          0          0       1584       1351   bsp.o
       180         18     175304          0          0       2123   cc936.o
       300         38          0          6       1028       3492   cmd_queue.o
       268         16          0          4          0       2487   delay.o
       422          8          0          2          0       7240   diskio.o
       132         18          0         20         80       1606   exfuns.o
      6394         64         58          2         12      36359   ff.o
       156         24          0          2        500       2536   hmi_app.o
       394         24          0          0          0       5641   hmi_driver.o
       148         12          0          8       2048       2572   iap.o
       236         98          0          4          0     305036   main.o
       504         60         36         36    1218560       6570   malloc.o
       200         32          0          0          0       2715   misc.o
        36          8        392          0       1024        852   startup_stm32f40_41xxx.o
       426         40          0          0          0       4620   stm32f4xx_flash.o
       218          0          0          0          0       2384   stm32f4xx_gpio.o
        76         10          0          0          0      29804   stm32f4xx_it.o
       392         48          0         16          0       5953   stm32f4xx_rcc.o
       726         42          0          0          0       7548   stm32f4xx_usart.o
       318         50          0          0          0       2451   stmflash.o
        16          0          0          0          0        488   sys.o
       340         32          0          0          0       1593   system_stm32f4xx.o
       340         18          0         12          0       4601   usart.o
       148          4          0          0          0       3808   usb_bsp.o
      2996         18          0          0          0      19707   usb_core.o
       202          0          0          0          0       5507   usb_hcd.o
      3702         16          0          0          0      10855   usb_hcd_int.o
      1634         42          0         18          0       9473   usbh_core.o
       390          0          0          0          0       4852   usbh_hcs.o
       560          0          0          0          0       5922   usbh_ioreq.o
      1140        100          0         17         64       7005   usbh_msc_bot.o
       876         62          0         29         74       6961   usbh_msc_core.o
      1312         88          0          1       1040       7616   usbh_msc_scsi.o
       942         14          0          3        512      10973   usbh_stdreq.o
      3502       1044          0         84       4926      23334   usbh_usr.o

    ----------------------------------------------------------------------
     30042       2220     175822        272    1231472     556511   Object Totals
         0          0         32          0          0          0   (incl. Generated)
        34          0          0          8         20          0   (incl. Padding)

    ----------------------------------------------------------------------

      Code (inc. data)   RO Data    RW Data    ZI Data      Debug   Library Member Name

         0          0          0          0          0          0   entry.o
         0          0          0          0          0          0   entry10a.o
         0          0          0          0          0          0   entry11a.o
         4          0          0          0          0          0   entry12b.o
         8          4          0          0          0          0   entry2.o
         4          0          0          0          0          0   entry5.o
         0          0          0          0          0          0   entry7b.o
         0          0          0          0          0          0   entry8b.o
         8          4          0          0          0          0   entry9a.o
        30          0          0          0          0          0   handlers.o
        36          8          0          0          0         68   init.o
         0          0          0          0          0          0   iusefp.o
        30          0          0          0          0         68   llshl.o
        36          0          0          0          0         68   llsshr.o
        32          0          0          0          0         68   llushr.o
      2268         96          0          0          0        616   printfa.o
        44          0          0          0          0         80   uidiv.o
        98          0          0          0          0         92   uldiv.o
        48          0          0          0          0         68   cdrcmple.o
       334          0          0          0          0        148   dadd.o
       222          0          0          0          0        100   ddiv.o
       186          0          0          0          0        176   depilogue.o
        48          0          0          0          0         68   dfixul.o
       228          0          0          0          0         96   dmul.o
        38          0          0          0          0         68   f2d.o

    ----------------------------------------------------------------------
      3704        112          0          0          0       1784   Library Totals
         2          0          0          0          0          0   (incl. Padding)

    ----------------------------------------------------------------------

      Code (inc. data)   RO Data    RW Data    ZI Data      Debug   Library Name

      2598        112          0          0          0       1060   mc_w.l
      1104          0          0          0          0        724   mf_w.l

    ----------------------------------------------------------------------
      3704        112          0          0          0       1784   Library Totals

    ----------------------------------------------------------------------

==============================================================================


      Code (inc. data)   RO Data    RW Data    ZI Data      Debug   

     33746       2332     175822        272    1231472     532615   Grand Totals
     33746       2332     175822        272    1231472     532615   ELF Image Totals
     33746       2332     175822        272          0          0   ROM Totals

==============================================================================

    Total RO  Size (Code + RO Data)               209568 ( 204.66kB)
    Total RW  Size (RW Data + ZI Data)           1231744 (1202.88kB)
    Total ROM Size (Code + RO Data + RW Data)     209840 ( 204.92kB)

==============================================================================

